
ctarget:     file format elf64-x86-64


Disassembly of section .init:

0000000000400bb0 <_init>:
  400bb0:	48 83 ec 08          	sub    $0x8,%rsp
  400bb4:	48 8b 05 3d 34 20 00 	mov    0x20343d(%rip),%rax        # 603ff8 <_DYNAMIC+0x1d8>
  400bbb:	48 85 c0             	test   %rax,%rax
  400bbe:	74 02                	je     400bc2 <_init+0x12>
  400bc0:	ff d0                	callq  *%rax
  400bc2:	48 83 c4 08          	add    $0x8,%rsp
  400bc6:	c3                   	retq   

Disassembly of section .plt:

0000000000400bd0 <strcasecmp@plt-0x10>:
  400bd0:	ff 35 32 34 20 00    	pushq  0x203432(%rip)        # 604008 <_GLOBAL_OFFSET_TABLE_+0x8>
  400bd6:	ff 25 34 34 20 00    	jmpq   *0x203434(%rip)        # 604010 <_GLOBAL_OFFSET_TABLE_+0x10>
  400bdc:	0f 1f 40 00          	nopl   0x0(%rax)

0000000000400be0 <strcasecmp@plt>:
  400be0:	ff 25 32 34 20 00    	jmpq   *0x203432(%rip)        # 604018 <_GLOBAL_OFFSET_TABLE_+0x18>
  400be6:	68 00 00 00 00       	pushq  $0x0
  400beb:	e9 e0 ff ff ff       	jmpq   400bd0 <_init+0x20>

0000000000400bf0 <__errno_location@plt>:
  400bf0:	ff 25 2a 34 20 00    	jmpq   *0x20342a(%rip)        # 604020 <_GLOBAL_OFFSET_TABLE_+0x20>
  400bf6:	68 01 00 00 00       	pushq  $0x1
  400bfb:	e9 d0 ff ff ff       	jmpq   400bd0 <_init+0x20>

0000000000400c00 <srandom@plt>:
  400c00:	ff 25 22 34 20 00    	jmpq   *0x203422(%rip)        # 604028 <_GLOBAL_OFFSET_TABLE_+0x28>
  400c06:	68 02 00 00 00       	pushq  $0x2
  400c0b:	e9 c0 ff ff ff       	jmpq   400bd0 <_init+0x20>

0000000000400c10 <strncmp@plt>:
  400c10:	ff 25 1a 34 20 00    	jmpq   *0x20341a(%rip)        # 604030 <_GLOBAL_OFFSET_TABLE_+0x30>
  400c16:	68 03 00 00 00       	pushq  $0x3
  400c1b:	e9 b0 ff ff ff       	jmpq   400bd0 <_init+0x20>

0000000000400c20 <strcpy@plt>:
  400c20:	ff 25 12 34 20 00    	jmpq   *0x203412(%rip)        # 604038 <_GLOBAL_OFFSET_TABLE_+0x38>
  400c26:	68 04 00 00 00       	pushq  $0x4
  400c2b:	e9 a0 ff ff ff       	jmpq   400bd0 <_init+0x20>

0000000000400c30 <puts@plt>:
  400c30:	ff 25 0a 34 20 00    	jmpq   *0x20340a(%rip)        # 604040 <_GLOBAL_OFFSET_TABLE_+0x40>
  400c36:	68 05 00 00 00       	pushq  $0x5
  400c3b:	e9 90 ff ff ff       	jmpq   400bd0 <_init+0x20>

0000000000400c40 <write@plt>:
  400c40:	ff 25 02 34 20 00    	jmpq   *0x203402(%rip)        # 604048 <_GLOBAL_OFFSET_TABLE_+0x48>
  400c46:	68 06 00 00 00       	pushq  $0x6
  400c4b:	e9 80 ff ff ff       	jmpq   400bd0 <_init+0x20>

0000000000400c50 <mmap@plt>:
  400c50:	ff 25 fa 33 20 00    	jmpq   *0x2033fa(%rip)        # 604050 <_GLOBAL_OFFSET_TABLE_+0x50>
  400c56:	68 07 00 00 00       	pushq  $0x7
  400c5b:	e9 70 ff ff ff       	jmpq   400bd0 <_init+0x20>

0000000000400c60 <printf@plt>:
  400c60:	ff 25 f2 33 20 00    	jmpq   *0x2033f2(%rip)        # 604058 <_GLOBAL_OFFSET_TABLE_+0x58>
  400c66:	68 08 00 00 00       	pushq  $0x8
  400c6b:	e9 60 ff ff ff       	jmpq   400bd0 <_init+0x20>

0000000000400c70 <memset@plt>:
  400c70:	ff 25 ea 33 20 00    	jmpq   *0x2033ea(%rip)        # 604060 <_GLOBAL_OFFSET_TABLE_+0x60>
  400c76:	68 09 00 00 00       	pushq  $0x9
  400c7b:	e9 50 ff ff ff       	jmpq   400bd0 <_init+0x20>

0000000000400c80 <alarm@plt>:
  400c80:	ff 25 e2 33 20 00    	jmpq   *0x2033e2(%rip)        # 604068 <_GLOBAL_OFFSET_TABLE_+0x68>
  400c86:	68 0a 00 00 00       	pushq  $0xa
  400c8b:	e9 40 ff ff ff       	jmpq   400bd0 <_init+0x20>

0000000000400c90 <close@plt>:
  400c90:	ff 25 da 33 20 00    	jmpq   *0x2033da(%rip)        # 604070 <_GLOBAL_OFFSET_TABLE_+0x70>
  400c96:	68 0b 00 00 00       	pushq  $0xb
  400c9b:	e9 30 ff ff ff       	jmpq   400bd0 <_init+0x20>

0000000000400ca0 <read@plt>:
  400ca0:	ff 25 d2 33 20 00    	jmpq   *0x2033d2(%rip)        # 604078 <_GLOBAL_OFFSET_TABLE_+0x78>
  400ca6:	68 0c 00 00 00       	pushq  $0xc
  400cab:	e9 20 ff ff ff       	jmpq   400bd0 <_init+0x20>

0000000000400cb0 <signal@plt>:
  400cb0:	ff 25 ca 33 20 00    	jmpq   *0x2033ca(%rip)        # 604080 <_GLOBAL_OFFSET_TABLE_+0x80>
  400cb6:	68 0d 00 00 00       	pushq  $0xd
  400cbb:	e9 10 ff ff ff       	jmpq   400bd0 <_init+0x20>

0000000000400cc0 <gethostbyname@plt>:
  400cc0:	ff 25 c2 33 20 00    	jmpq   *0x2033c2(%rip)        # 604088 <_GLOBAL_OFFSET_TABLE_+0x88>
  400cc6:	68 0e 00 00 00       	pushq  $0xe
  400ccb:	e9 00 ff ff ff       	jmpq   400bd0 <_init+0x20>

0000000000400cd0 <fprintf@plt>:
  400cd0:	ff 25 ba 33 20 00    	jmpq   *0x2033ba(%rip)        # 604090 <_GLOBAL_OFFSET_TABLE_+0x90>
  400cd6:	68 0f 00 00 00       	pushq  $0xf
  400cdb:	e9 f0 fe ff ff       	jmpq   400bd0 <_init+0x20>

0000000000400ce0 <strtol@plt>:
  400ce0:	ff 25 b2 33 20 00    	jmpq   *0x2033b2(%rip)        # 604098 <_GLOBAL_OFFSET_TABLE_+0x98>
  400ce6:	68 10 00 00 00       	pushq  $0x10
  400ceb:	e9 e0 fe ff ff       	jmpq   400bd0 <_init+0x20>

0000000000400cf0 <memcpy@plt>:
  400cf0:	ff 25 aa 33 20 00    	jmpq   *0x2033aa(%rip)        # 6040a0 <_GLOBAL_OFFSET_TABLE_+0xa0>
  400cf6:	68 11 00 00 00       	pushq  $0x11
  400cfb:	e9 d0 fe ff ff       	jmpq   400bd0 <_init+0x20>

0000000000400d00 <time@plt>:
  400d00:	ff 25 a2 33 20 00    	jmpq   *0x2033a2(%rip)        # 6040a8 <_GLOBAL_OFFSET_TABLE_+0xa8>
  400d06:	68 12 00 00 00       	pushq  $0x12
  400d0b:	e9 c0 fe ff ff       	jmpq   400bd0 <_init+0x20>

0000000000400d10 <random@plt>:
  400d10:	ff 25 9a 33 20 00    	jmpq   *0x20339a(%rip)        # 6040b0 <_GLOBAL_OFFSET_TABLE_+0xb0>
  400d16:	68 13 00 00 00       	pushq  $0x13
  400d1b:	e9 b0 fe ff ff       	jmpq   400bd0 <_init+0x20>

0000000000400d20 <_IO_getc@plt>:
  400d20:	ff 25 92 33 20 00    	jmpq   *0x203392(%rip)        # 6040b8 <_GLOBAL_OFFSET_TABLE_+0xb8>
  400d26:	68 14 00 00 00       	pushq  $0x14
  400d2b:	e9 a0 fe ff ff       	jmpq   400bd0 <_init+0x20>

0000000000400d30 <__isoc99_sscanf@plt>:
  400d30:	ff 25 8a 33 20 00    	jmpq   *0x20338a(%rip)        # 6040c0 <_GLOBAL_OFFSET_TABLE_+0xc0>
  400d36:	68 15 00 00 00       	pushq  $0x15
  400d3b:	e9 90 fe ff ff       	jmpq   400bd0 <_init+0x20>

0000000000400d40 <munmap@plt>:
  400d40:	ff 25 82 33 20 00    	jmpq   *0x203382(%rip)        # 6040c8 <_GLOBAL_OFFSET_TABLE_+0xc8>
  400d46:	68 16 00 00 00       	pushq  $0x16
  400d4b:	e9 80 fe ff ff       	jmpq   400bd0 <_init+0x20>

0000000000400d50 <bcopy@plt>:
  400d50:	ff 25 7a 33 20 00    	jmpq   *0x20337a(%rip)        # 6040d0 <_GLOBAL_OFFSET_TABLE_+0xd0>
  400d56:	68 17 00 00 00       	pushq  $0x17
  400d5b:	e9 70 fe ff ff       	jmpq   400bd0 <_init+0x20>

0000000000400d60 <fopen@plt>:
  400d60:	ff 25 72 33 20 00    	jmpq   *0x203372(%rip)        # 6040d8 <_GLOBAL_OFFSET_TABLE_+0xd8>
  400d66:	68 18 00 00 00       	pushq  $0x18
  400d6b:	e9 60 fe ff ff       	jmpq   400bd0 <_init+0x20>

0000000000400d70 <getopt@plt>:
  400d70:	ff 25 6a 33 20 00    	jmpq   *0x20336a(%rip)        # 6040e0 <_GLOBAL_OFFSET_TABLE_+0xe0>
  400d76:	68 19 00 00 00       	pushq  $0x19
  400d7b:	e9 50 fe ff ff       	jmpq   400bd0 <_init+0x20>

0000000000400d80 <strtoul@plt>:
  400d80:	ff 25 62 33 20 00    	jmpq   *0x203362(%rip)        # 6040e8 <_GLOBAL_OFFSET_TABLE_+0xe8>
  400d86:	68 1a 00 00 00       	pushq  $0x1a
  400d8b:	e9 40 fe ff ff       	jmpq   400bd0 <_init+0x20>

0000000000400d90 <gethostname@plt>:
  400d90:	ff 25 5a 33 20 00    	jmpq   *0x20335a(%rip)        # 6040f0 <_GLOBAL_OFFSET_TABLE_+0xf0>
  400d96:	68 1b 00 00 00       	pushq  $0x1b
  400d9b:	e9 30 fe ff ff       	jmpq   400bd0 <_init+0x20>

0000000000400da0 <sprintf@plt>:
  400da0:	ff 25 52 33 20 00    	jmpq   *0x203352(%rip)        # 6040f8 <_GLOBAL_OFFSET_TABLE_+0xf8>
  400da6:	68 1c 00 00 00       	pushq  $0x1c
  400dab:	e9 20 fe ff ff       	jmpq   400bd0 <_init+0x20>

0000000000400db0 <exit@plt>:
  400db0:	ff 25 4a 33 20 00    	jmpq   *0x20334a(%rip)        # 604100 <_GLOBAL_OFFSET_TABLE_+0x100>
  400db6:	68 1d 00 00 00       	pushq  $0x1d
  400dbb:	e9 10 fe ff ff       	jmpq   400bd0 <_init+0x20>

0000000000400dc0 <connect@plt>:
  400dc0:	ff 25 42 33 20 00    	jmpq   *0x203342(%rip)        # 604108 <_GLOBAL_OFFSET_TABLE_+0x108>
  400dc6:	68 1e 00 00 00       	pushq  $0x1e
  400dcb:	e9 00 fe ff ff       	jmpq   400bd0 <_init+0x20>

0000000000400dd0 <socket@plt>:
  400dd0:	ff 25 3a 33 20 00    	jmpq   *0x20333a(%rip)        # 604110 <_GLOBAL_OFFSET_TABLE_+0x110>
  400dd6:	68 1f 00 00 00       	pushq  $0x1f
  400ddb:	e9 f0 fd ff ff       	jmpq   400bd0 <_init+0x20>

Disassembly of section .text:

0000000000400de0 <_start>:
  400de0:	31 ed                	xor    %ebp,%ebp
  400de2:	49 89 d1             	mov    %rdx,%r9
  400de5:	5e                   	pop    %rsi
  400de6:	48 89 e2             	mov    %rsp,%rdx
  400de9:	48 83 e4 f0          	and    $0xfffffffffffffff0,%rsp
  400ded:	50                   	push   %rax
  400dee:	54                   	push   %rsp
  400def:	49 c7 c0 c0 2c 40 00 	mov    $0x402cc0,%r8
  400df6:	48 c7 c1 50 2c 40 00 	mov    $0x402c50,%rcx
  400dfd:	48 c7 c7 8d 10 40 00 	mov    $0x40108d,%rdi
  400e04:	ff 15 e6 31 20 00    	callq  *0x2031e6(%rip)        # 603ff0 <_DYNAMIC+0x1d0>
  400e0a:	f4                   	hlt    
  400e0b:	0f 1f 44 00 00       	nopl   0x0(%rax,%rax,1)

0000000000400e10 <deregister_tm_clones>:
  400e10:	b8 97 44 60 00       	mov    $0x604497,%eax
  400e15:	55                   	push   %rbp
  400e16:	48 2d 90 44 60 00    	sub    $0x604490,%rax
  400e1c:	48 83 f8 0e          	cmp    $0xe,%rax
  400e20:	48 89 e5             	mov    %rsp,%rbp
  400e23:	76 1b                	jbe    400e40 <deregister_tm_clones+0x30>
  400e25:	b8 00 00 00 00       	mov    $0x0,%eax
  400e2a:	48 85 c0             	test   %rax,%rax
  400e2d:	74 11                	je     400e40 <deregister_tm_clones+0x30>
  400e2f:	5d                   	pop    %rbp
  400e30:	bf 90 44 60 00       	mov    $0x604490,%edi
  400e35:	ff e0                	jmpq   *%rax
  400e37:	66 0f 1f 84 00 00 00 	nopw   0x0(%rax,%rax,1)
  400e3e:	00 00 
  400e40:	5d                   	pop    %rbp
  400e41:	c3                   	retq   
  400e42:	0f 1f 40 00          	nopl   0x0(%rax)
  400e46:	66 2e 0f 1f 84 00 00 	nopw   %cs:0x0(%rax,%rax,1)
  400e4d:	00 00 00 

0000000000400e50 <register_tm_clones>:
  400e50:	be 90 44 60 00       	mov    $0x604490,%esi
  400e55:	55                   	push   %rbp
  400e56:	48 81 ee 90 44 60 00 	sub    $0x604490,%rsi
  400e5d:	48 c1 fe 03          	sar    $0x3,%rsi
  400e61:	48 89 e5             	mov    %rsp,%rbp
  400e64:	48 89 f0             	mov    %rsi,%rax
  400e67:	48 c1 e8 3f          	shr    $0x3f,%rax
  400e6b:	48 01 c6             	add    %rax,%rsi
  400e6e:	48 d1 fe             	sar    %rsi
  400e71:	74 15                	je     400e88 <register_tm_clones+0x38>
  400e73:	b8 00 00 00 00       	mov    $0x0,%eax
  400e78:	48 85 c0             	test   %rax,%rax
  400e7b:	74 0b                	je     400e88 <register_tm_clones+0x38>
  400e7d:	5d                   	pop    %rbp
  400e7e:	bf 90 44 60 00       	mov    $0x604490,%edi
  400e83:	ff e0                	jmpq   *%rax
  400e85:	0f 1f 00             	nopl   (%rax)
  400e88:	5d                   	pop    %rbp
  400e89:	c3                   	retq   
  400e8a:	66 0f 1f 44 00 00    	nopw   0x0(%rax,%rax,1)

0000000000400e90 <__do_global_dtors_aux>:
  400e90:	80 3d 31 36 20 00 00 	cmpb   $0x0,0x203631(%rip)        # 6044c8 <completed.6963>
  400e97:	75 11                	jne    400eaa <__do_global_dtors_aux+0x1a>
  400e99:	55                   	push   %rbp
  400e9a:	48 89 e5             	mov    %rsp,%rbp
  400e9d:	e8 6e ff ff ff       	callq  400e10 <deregister_tm_clones>
  400ea2:	5d                   	pop    %rbp
  400ea3:	c6 05 1e 36 20 00 01 	movb   $0x1,0x20361e(%rip)        # 6044c8 <completed.6963>
  400eaa:	f3 c3                	repz retq 
  400eac:	0f 1f 40 00          	nopl   0x0(%rax)

0000000000400eb0 <frame_dummy>:
  400eb0:	bf 18 3e 60 00       	mov    $0x603e18,%edi
  400eb5:	48 83 3f 00          	cmpq   $0x0,(%rdi)
  400eb9:	75 05                	jne    400ec0 <frame_dummy+0x10>
  400ebb:	eb 93                	jmp    400e50 <register_tm_clones>
  400ebd:	0f 1f 00             	nopl   (%rax)
  400ec0:	b8 00 00 00 00       	mov    $0x0,%eax
  400ec5:	48 85 c0             	test   %rax,%rax
  400ec8:	74 f1                	je     400ebb <frame_dummy+0xb>
  400eca:	55                   	push   %rbp
  400ecb:	48 89 e5             	mov    %rsp,%rbp
  400ece:	ff d0                	callq  *%rax
  400ed0:	5d                   	pop    %rbp
  400ed1:	e9 7a ff ff ff       	jmpq   400e50 <register_tm_clones>

0000000000400ed6 <usage>:
  400ed6:	48 83 ec 08          	sub    $0x8,%rsp
  400eda:	48 89 fe             	mov    %rdi,%rsi
  400edd:	83 3d 24 36 20 00 00 	cmpl   $0x0,0x203624(%rip)        # 604508 <is_checker>
  400ee4:	74 4b                	je     400f31 <usage+0x5b>
  400ee6:	48 8d 3d eb 1d 00 00 	lea    0x1deb(%rip),%rdi        # 402cd8 <_IO_stdin_used+0x8>
  400eed:	b8 00 00 00 00       	mov    $0x0,%eax
  400ef2:	e8 69 fd ff ff       	callq  400c60 <printf@plt>
  400ef7:	48 8d 3d 12 1e 00 00 	lea    0x1e12(%rip),%rdi        # 402d10 <_IO_stdin_used+0x40>
  400efe:	e8 2d fd ff ff       	callq  400c30 <puts@plt>
  400f03:	48 8d 3d 3e 1f 00 00 	lea    0x1f3e(%rip),%rdi        # 402e48 <_IO_stdin_used+0x178>
  400f0a:	e8 21 fd ff ff       	callq  400c30 <puts@plt>
  400f0f:	48 8d 3d 22 1e 00 00 	lea    0x1e22(%rip),%rdi        # 402d38 <_IO_stdin_used+0x68>
  400f16:	e8 15 fd ff ff       	callq  400c30 <puts@plt>
  400f1b:	48 8d 3d 40 1f 00 00 	lea    0x1f40(%rip),%rdi        # 402e62 <_IO_stdin_used+0x192>
  400f22:	e8 09 fd ff ff       	callq  400c30 <puts@plt>
  400f27:	bf 00 00 00 00       	mov    $0x0,%edi
  400f2c:	e8 7f fe ff ff       	callq  400db0 <exit@plt>
  400f31:	48 8d 3d 46 1f 00 00 	lea    0x1f46(%rip),%rdi        # 402e7e <_IO_stdin_used+0x1ae>
  400f38:	b8 00 00 00 00       	mov    $0x0,%eax
  400f3d:	e8 1e fd ff ff       	callq  400c60 <printf@plt>
  400f42:	48 8d 3d 17 1e 00 00 	lea    0x1e17(%rip),%rdi        # 402d60 <_IO_stdin_used+0x90>
  400f49:	e8 e2 fc ff ff       	callq  400c30 <puts@plt>
  400f4e:	48 8d 3d 33 1e 00 00 	lea    0x1e33(%rip),%rdi        # 402d88 <_IO_stdin_used+0xb8>
  400f55:	e8 d6 fc ff ff       	callq  400c30 <puts@plt>
  400f5a:	48 8d 3d 3b 1f 00 00 	lea    0x1f3b(%rip),%rdi        # 402e9c <_IO_stdin_used+0x1cc>
  400f61:	e8 ca fc ff ff       	callq  400c30 <puts@plt>
  400f66:	eb bf                	jmp    400f27 <usage+0x51>

0000000000400f68 <initialize_target>:
  400f68:	55                   	push   %rbp
  400f69:	53                   	push   %rbx
  400f6a:	48 81 ec 08 21 00 00 	sub    $0x2108,%rsp
  400f71:	89 f5                	mov    %esi,%ebp
  400f73:	89 3d 7f 35 20 00    	mov    %edi,0x20357f(%rip)        # 6044f8 <check_level>
  400f79:	8b 3d b1 31 20 00    	mov    0x2031b1(%rip),%edi        # 604130 <target_id>
  400f7f:	e8 a9 1c 00 00       	callq  402c2d <gencookie>
  400f84:	89 05 7a 35 20 00    	mov    %eax,0x20357a(%rip)        # 604504 <cookie>
  400f8a:	89 c7                	mov    %eax,%edi
  400f8c:	e8 9c 1c 00 00       	callq  402c2d <gencookie>
  400f91:	89 05 69 35 20 00    	mov    %eax,0x203569(%rip)        # 604500 <authkey>
  400f97:	8b 05 93 31 20 00    	mov    0x203193(%rip),%eax        # 604130 <target_id>
  400f9d:	8d 78 01             	lea    0x1(%rax),%edi
  400fa0:	e8 5b fc ff ff       	callq  400c00 <srandom@plt>
  400fa5:	e8 66 fd ff ff       	callq  400d10 <random@plt>
  400faa:	89 c7                	mov    %eax,%edi
  400fac:	e8 c3 02 00 00       	callq  401274 <scramble>
  400fb1:	89 c3                	mov    %eax,%ebx
  400fb3:	85 ed                	test   %ebp,%ebp
  400fb5:	75 3d                	jne    400ff4 <initialize_target+0x8c>
  400fb7:	b8 00 00 00 00       	mov    $0x0,%eax
  400fbc:	01 d8                	add    %ebx,%eax
  400fbe:	0f b7 c0             	movzwl %ax,%eax
  400fc1:	8d 04 c5 00 01 00 00 	lea    0x100(,%rax,8),%eax
  400fc8:	89 c0                	mov    %eax,%eax
  400fca:	48 89 05 af 34 20 00 	mov    %rax,0x2034af(%rip)        # 604480 <buf_offset>
  400fd1:	c6 05 50 41 20 00 63 	movb   $0x63,0x204150(%rip)        # 605128 <target_prefix>
  400fd8:	83 3d a9 34 20 00 00 	cmpl   $0x0,0x2034a9(%rip)        # 604488 <notify>
  400fdf:	74 09                	je     400fea <initialize_target+0x82>
  400fe1:	83 3d 20 35 20 00 00 	cmpl   $0x0,0x203520(%rip)        # 604508 <is_checker>
  400fe8:	74 22                	je     40100c <initialize_target+0xa4>
  400fea:	48 81 c4 08 21 00 00 	add    $0x2108,%rsp
  400ff1:	5b                   	pop    %rbx
  400ff2:	5d                   	pop    %rbp
  400ff3:	c3                   	retq   
  400ff4:	bf 00 00 00 00       	mov    $0x0,%edi
  400ff9:	e8 02 fd ff ff       	callq  400d00 <time@plt>
  400ffe:	89 c7                	mov    %eax,%edi
  401000:	e8 fb fb ff ff       	callq  400c00 <srandom@plt>
  401005:	e8 06 fd ff ff       	callq  400d10 <random@plt>
  40100a:	eb b0                	jmp    400fbc <initialize_target+0x54>
  40100c:	48 89 e7             	mov    %rsp,%rdi
  40100f:	be 00 01 00 00       	mov    $0x100,%esi
  401014:	e8 77 fd ff ff       	callq  400d90 <gethostname@plt>
  401019:	89 c3                	mov    %eax,%ebx
  40101b:	85 c0                	test   %eax,%eax
  40101d:	75 24                	jne    401043 <initialize_target+0xdb>
  40101f:	48 63 c3             	movslq %ebx,%rax
  401022:	48 8d 15 37 31 20 00 	lea    0x203137(%rip),%rdx        # 604160 <host_table>
  401029:	48 8b 3c c2          	mov    (%rdx,%rax,8),%rdi
  40102d:	48 85 ff             	test   %rdi,%rdi
  401030:	74 27                	je     401059 <initialize_target+0xf1>
  401032:	48 89 e6             	mov    %rsp,%rsi
  401035:	e8 a6 fb ff ff       	callq  400be0 <strcasecmp@plt>
  40103a:	85 c0                	test   %eax,%eax
  40103c:	74 1b                	je     401059 <initialize_target+0xf1>
  40103e:	83 c3 01             	add    $0x1,%ebx
  401041:	eb dc                	jmp    40101f <initialize_target+0xb7>
  401043:	48 8d 3d 6e 1d 00 00 	lea    0x1d6e(%rip),%rdi        # 402db8 <_IO_stdin_used+0xe8>
  40104a:	e8 e1 fb ff ff       	callq  400c30 <puts@plt>
  40104f:	bf 08 00 00 00       	mov    $0x8,%edi
  401054:	e8 57 fd ff ff       	callq  400db0 <exit@plt>
  401059:	48 8d bc 24 00 01 00 	lea    0x100(%rsp),%rdi
  401060:	00 
  401061:	e8 4c 19 00 00       	callq  4029b2 <init_driver>
  401066:	85 c0                	test   %eax,%eax
  401068:	79 80                	jns    400fea <initialize_target+0x82>
  40106a:	48 8d b4 24 00 01 00 	lea    0x100(%rsp),%rsi
  401071:	00 
  401072:	48 8d 3d 77 1d 00 00 	lea    0x1d77(%rip),%rdi        # 402df0 <_IO_stdin_used+0x120>
  401079:	b8 00 00 00 00       	mov    $0x0,%eax
  40107e:	e8 dd fb ff ff       	callq  400c60 <printf@plt>
  401083:	bf 08 00 00 00       	mov    $0x8,%edi
  401088:	e8 23 fd ff ff       	callq  400db0 <exit@plt>

000000000040108d <main>:
  40108d:	41 56                	push   %r14
  40108f:	41 55                	push   %r13
  401091:	41 54                	push   %r12
  401093:	55                   	push   %rbp
  401094:	53                   	push   %rbx
  401095:	41 89 fc             	mov    %edi,%r12d
  401098:	48 89 f3             	mov    %rsi,%rbx
  40109b:	48 c7 c6 58 1d 40 00 	mov    $0x401d58,%rsi
  4010a2:	bf 0b 00 00 00       	mov    $0xb,%edi
  4010a7:	e8 04 fc ff ff       	callq  400cb0 <signal@plt>
  4010ac:	48 c7 c6 04 1d 40 00 	mov    $0x401d04,%rsi
  4010b3:	bf 07 00 00 00       	mov    $0x7,%edi
  4010b8:	e8 f3 fb ff ff       	callq  400cb0 <signal@plt>
  4010bd:	48 c7 c6 ac 1d 40 00 	mov    $0x401dac,%rsi
  4010c4:	bf 04 00 00 00       	mov    $0x4,%edi
  4010c9:	e8 e2 fb ff ff       	callq  400cb0 <signal@plt>
  4010ce:	83 3d 33 34 20 00 00 	cmpl   $0x0,0x203433(%rip)        # 604508 <is_checker>
  4010d5:	75 58                	jne    40112f <main+0xa2>
  4010d7:	48 8d 2d d7 1d 00 00 	lea    0x1dd7(%rip),%rbp        # 402eb5 <_IO_stdin_used+0x1e5>
  4010de:	48 8b 05 bb 33 20 00 	mov    0x2033bb(%rip),%rax        # 6044a0 <stdin@@GLIBC_2.2.5>
  4010e5:	48 89 05 04 34 20 00 	mov    %rax,0x203404(%rip)        # 6044f0 <infile>
  4010ec:	41 bd 00 00 00 00    	mov    $0x0,%r13d
  4010f2:	41 be 00 00 00 00    	mov    $0x0,%r14d
  4010f8:	48 89 ea             	mov    %rbp,%rdx
  4010fb:	48 89 de             	mov    %rbx,%rsi
  4010fe:	44 89 e7             	mov    %r12d,%edi
  401101:	e8 6a fc ff ff       	callq  400d70 <getopt@plt>
  401106:	3c ff                	cmp    $0xff,%al
  401108:	0f 84 f8 00 00 00    	je     401206 <main+0x179>
  40110e:	0f be f0             	movsbl %al,%esi
  401111:	83 e8 61             	sub    $0x61,%eax
  401114:	3c 10                	cmp    $0x10,%al
  401116:	0f 87 d1 00 00 00    	ja     4011ed <main+0x160>
  40111c:	0f b6 c0             	movzbl %al,%eax
  40111f:	48 8d 15 da 1d 00 00 	lea    0x1dda(%rip),%rdx        # 402f00 <_IO_stdin_used+0x230>
  401126:	48 63 04 82          	movslq (%rdx,%rax,4),%rax
  40112a:	48 01 d0             	add    %rdx,%rax
  40112d:	ff e0                	jmpq   *%rax
  40112f:	48 c7 c6 00 1e 40 00 	mov    $0x401e00,%rsi
  401136:	bf 0e 00 00 00       	mov    $0xe,%edi
  40113b:	e8 70 fb ff ff       	callq  400cb0 <signal@plt>
  401140:	bf 05 00 00 00       	mov    $0x5,%edi
  401145:	e8 36 fb ff ff       	callq  400c80 <alarm@plt>
  40114a:	48 8d 2d 69 1d 00 00 	lea    0x1d69(%rip),%rbp        # 402eba <_IO_stdin_used+0x1ea>
  401151:	eb 8b                	jmp    4010de <main+0x51>
  401153:	48 8b 3b             	mov    (%rbx),%rdi
  401156:	e8 7b fd ff ff       	callq  400ed6 <usage>
  40115b:	48 8d 35 bb 1f 00 00 	lea    0x1fbb(%rip),%rsi        # 40311d <_IO_stdin_used+0x44d>
  401162:	48 8b 3d 3f 33 20 00 	mov    0x20333f(%rip),%rdi        # 6044a8 <optarg@@GLIBC_2.2.5>
  401169:	e8 f2 fb ff ff       	callq  400d60 <fopen@plt>
  40116e:	48 89 05 7b 33 20 00 	mov    %rax,0x20337b(%rip)        # 6044f0 <infile>
  401175:	48 85 c0             	test   %rax,%rax
  401178:	0f 85 7a ff ff ff    	jne    4010f8 <main+0x6b>
  40117e:	48 8b 15 23 33 20 00 	mov    0x203323(%rip),%rdx        # 6044a8 <optarg@@GLIBC_2.2.5>
  401185:	48 8d 35 36 1d 00 00 	lea    0x1d36(%rip),%rsi        # 402ec2 <_IO_stdin_used+0x1f2>
  40118c:	48 8b 3d 2d 33 20 00 	mov    0x20332d(%rip),%rdi        # 6044c0 <stderr@@GLIBC_2.2.5>
  401193:	e8 38 fb ff ff       	callq  400cd0 <fprintf@plt>
  401198:	b8 01 00 00 00       	mov    $0x1,%eax
  40119d:	e9 c9 00 00 00       	jmpq   40126b <main+0x1de>
  4011a2:	ba 10 00 00 00       	mov    $0x10,%edx
  4011a7:	be 00 00 00 00       	mov    $0x0,%esi
  4011ac:	48 8b 3d f5 32 20 00 	mov    0x2032f5(%rip),%rdi        # 6044a8 <optarg@@GLIBC_2.2.5>
  4011b3:	e8 c8 fb ff ff       	callq  400d80 <strtoul@plt>
  4011b8:	41 89 c6             	mov    %eax,%r14d
  4011bb:	e9 38 ff ff ff       	jmpq   4010f8 <main+0x6b>
  4011c0:	ba 0a 00 00 00       	mov    $0xa,%edx
  4011c5:	be 00 00 00 00       	mov    $0x0,%esi
  4011ca:	48 8b 3d d7 32 20 00 	mov    0x2032d7(%rip),%rdi        # 6044a8 <optarg@@GLIBC_2.2.5>
  4011d1:	e8 0a fb ff ff       	callq  400ce0 <strtol@plt>
  4011d6:	41 89 c5             	mov    %eax,%r13d
  4011d9:	e9 1a ff ff ff       	jmpq   4010f8 <main+0x6b>
  4011de:	c7 05 a0 32 20 00 00 	movl   $0x0,0x2032a0(%rip)        # 604488 <notify>
  4011e5:	00 00 00 
  4011e8:	e9 0b ff ff ff       	jmpq   4010f8 <main+0x6b>
  4011ed:	48 8d 3d eb 1c 00 00 	lea    0x1ceb(%rip),%rdi        # 402edf <_IO_stdin_used+0x20f>
  4011f4:	b8 00 00 00 00       	mov    $0x0,%eax
  4011f9:	e8 62 fa ff ff       	callq  400c60 <printf@plt>
  4011fe:	48 8b 3b             	mov    (%rbx),%rdi
  401201:	e8 d0 fc ff ff       	callq  400ed6 <usage>
  401206:	be 00 00 00 00       	mov    $0x0,%esi
  40120b:	44 89 ef             	mov    %r13d,%edi
  40120e:	e8 55 fd ff ff       	callq  400f68 <initialize_target>
  401213:	83 3d ee 32 20 00 00 	cmpl   $0x0,0x2032ee(%rip)        # 604508 <is_checker>
  40121a:	74 27                	je     401243 <main+0x1b6>
  40121c:	44 3b 35 dd 32 20 00 	cmp    0x2032dd(%rip),%r14d        # 604500 <authkey>
  401223:	74 1e                	je     401243 <main+0x1b6>
  401225:	44 89 f6             	mov    %r14d,%esi
  401228:	48 8d 3d e9 1b 00 00 	lea    0x1be9(%rip),%rdi        # 402e18 <_IO_stdin_used+0x148>
  40122f:	b8 00 00 00 00       	mov    $0x0,%eax
  401234:	e8 27 fa ff ff       	callq  400c60 <printf@plt>
  401239:	b8 00 00 00 00       	mov    $0x0,%eax
  40123e:	e8 91 07 00 00       	callq  4019d4 <check_fail>
  401243:	8b 35 bb 32 20 00    	mov    0x2032bb(%rip),%esi        # 604504 <cookie>
  401249:	48 8d 3d a2 1c 00 00 	lea    0x1ca2(%rip),%rdi        # 402ef2 <_IO_stdin_used+0x222>
  401250:	b8 00 00 00 00       	mov    $0x0,%eax
  401255:	e8 06 fa ff ff       	callq  400c60 <printf@plt>
  40125a:	48 8b 3d 1f 32 20 00 	mov    0x20321f(%rip),%rdi        # 604480 <buf_offset>
  401261:	e8 75 0c 00 00       	callq  401edb <stable_launch>
  401266:	b8 00 00 00 00       	mov    $0x0,%eax
  40126b:	5b                   	pop    %rbx
  40126c:	5d                   	pop    %rbp
  40126d:	41 5c                	pop    %r12
  40126f:	41 5d                	pop    %r13
  401271:	41 5e                	pop    %r14
  401273:	c3                   	retq   

0000000000401274 <scramble>:
  401274:	b8 00 00 00 00       	mov    $0x0,%eax
  401279:	eb 11                	jmp    40128c <scramble+0x18>
  40127b:	69 d0 d4 2f 00 00    	imul   $0x2fd4,%eax,%edx
  401281:	01 fa                	add    %edi,%edx
  401283:	89 c1                	mov    %eax,%ecx
  401285:	89 54 8c d0          	mov    %edx,-0x30(%rsp,%rcx,4)
  401289:	83 c0 01             	add    $0x1,%eax
  40128c:	83 f8 09             	cmp    $0x9,%eax
  40128f:	76 ea                	jbe    40127b <scramble+0x7>
  401291:	8b 44 24 d0          	mov    -0x30(%rsp),%eax
  401295:	69 c0 f6 13 00 00    	imul   $0x13f6,%eax,%eax
  40129b:	89 44 24 d0          	mov    %eax,-0x30(%rsp)
  40129f:	8b 44 24 d0          	mov    -0x30(%rsp),%eax
  4012a3:	69 c0 b5 d3 00 00    	imul   $0xd3b5,%eax,%eax
  4012a9:	89 44 24 d0          	mov    %eax,-0x30(%rsp)
  4012ad:	8b 44 24 d8          	mov    -0x28(%rsp),%eax
  4012b1:	69 c0 b5 e2 00 00    	imul   $0xe2b5,%eax,%eax
  4012b7:	89 44 24 d8          	mov    %eax,-0x28(%rsp)
  4012bb:	8b 44 24 d0          	mov    -0x30(%rsp),%eax
  4012bf:	69 c0 d1 ba 00 00    	imul   $0xbad1,%eax,%eax
  4012c5:	89 44 24 d0          	mov    %eax,-0x30(%rsp)
  4012c9:	8b 44 24 e8          	mov    -0x18(%rsp),%eax
  4012cd:	69 c0 3f 54 00 00    	imul   $0x543f,%eax,%eax
  4012d3:	89 44 24 e8          	mov    %eax,-0x18(%rsp)
  4012d7:	8b 44 24 e8          	mov    -0x18(%rsp),%eax
  4012db:	69 c0 2e 53 00 00    	imul   $0x532e,%eax,%eax
  4012e1:	89 44 24 e8          	mov    %eax,-0x18(%rsp)
  4012e5:	8b 44 24 dc          	mov    -0x24(%rsp),%eax
  4012e9:	69 c0 bd 28 00 00    	imul   $0x28bd,%eax,%eax
  4012ef:	89 44 24 dc          	mov    %eax,-0x24(%rsp)
  4012f3:	8b 44 24 d4          	mov    -0x2c(%rsp),%eax
  4012f7:	69 c0 20 96 00 00    	imul   $0x9620,%eax,%eax
  4012fd:	89 44 24 d4          	mov    %eax,-0x2c(%rsp)
  401301:	8b 44 24 f0          	mov    -0x10(%rsp),%eax
  401305:	69 c0 67 90 00 00    	imul   $0x9067,%eax,%eax
  40130b:	89 44 24 f0          	mov    %eax,-0x10(%rsp)
  40130f:	8b 44 24 d4          	mov    -0x2c(%rsp),%eax
  401313:	69 c0 3c c1 00 00    	imul   $0xc13c,%eax,%eax
  401319:	89 44 24 d4          	mov    %eax,-0x2c(%rsp)
  40131d:	8b 44 24 ec          	mov    -0x14(%rsp),%eax
  401321:	69 c0 dc 0a 00 00    	imul   $0xadc,%eax,%eax
  401327:	89 44 24 ec          	mov    %eax,-0x14(%rsp)
  40132b:	8b 44 24 e4          	mov    -0x1c(%rsp),%eax
  40132f:	69 c0 97 65 00 00    	imul   $0x6597,%eax,%eax
  401335:	89 44 24 e4          	mov    %eax,-0x1c(%rsp)
  401339:	8b 44 24 d0          	mov    -0x30(%rsp),%eax
  40133d:	69 c0 41 3e 00 00    	imul   $0x3e41,%eax,%eax
  401343:	89 44 24 d0          	mov    %eax,-0x30(%rsp)
  401347:	8b 44 24 d4          	mov    -0x2c(%rsp),%eax
  40134b:	69 c0 01 f1 00 00    	imul   $0xf101,%eax,%eax
  401351:	89 44 24 d4          	mov    %eax,-0x2c(%rsp)
  401355:	8b 44 24 f0          	mov    -0x10(%rsp),%eax
  401359:	69 c0 e7 44 00 00    	imul   $0x44e7,%eax,%eax
  40135f:	89 44 24 f0          	mov    %eax,-0x10(%rsp)
  401363:	8b 44 24 ec          	mov    -0x14(%rsp),%eax
  401367:	69 c0 c7 1a 00 00    	imul   $0x1ac7,%eax,%eax
  40136d:	89 44 24 ec          	mov    %eax,-0x14(%rsp)
  401371:	8b 44 24 e4          	mov    -0x1c(%rsp),%eax
  401375:	69 c0 88 dc 00 00    	imul   $0xdc88,%eax,%eax
  40137b:	89 44 24 e4          	mov    %eax,-0x1c(%rsp)
  40137f:	8b 44 24 e8          	mov    -0x18(%rsp),%eax
  401383:	69 c0 93 21 00 00    	imul   $0x2193,%eax,%eax
  401389:	89 44 24 e8          	mov    %eax,-0x18(%rsp)
  40138d:	8b 44 24 d0          	mov    -0x30(%rsp),%eax
  401391:	69 c0 ab df 00 00    	imul   $0xdfab,%eax,%eax
  401397:	89 44 24 d0          	mov    %eax,-0x30(%rsp)
  40139b:	8b 44 24 e8          	mov    -0x18(%rsp),%eax
  40139f:	69 c0 2e 64 00 00    	imul   $0x642e,%eax,%eax
  4013a5:	89 44 24 e8          	mov    %eax,-0x18(%rsp)
  4013a9:	8b 44 24 d0          	mov    -0x30(%rsp),%eax
  4013ad:	69 c0 62 fc 00 00    	imul   $0xfc62,%eax,%eax
  4013b3:	89 44 24 d0          	mov    %eax,-0x30(%rsp)
  4013b7:	8b 44 24 d0          	mov    -0x30(%rsp),%eax
  4013bb:	69 c0 d0 19 00 00    	imul   $0x19d0,%eax,%eax
  4013c1:	89 44 24 d0          	mov    %eax,-0x30(%rsp)
  4013c5:	8b 44 24 d8          	mov    -0x28(%rsp),%eax
  4013c9:	69 c0 d6 ec 00 00    	imul   $0xecd6,%eax,%eax
  4013cf:	89 44 24 d8          	mov    %eax,-0x28(%rsp)
  4013d3:	8b 44 24 ec          	mov    -0x14(%rsp),%eax
  4013d7:	69 c0 a3 3f 00 00    	imul   $0x3fa3,%eax,%eax
  4013dd:	89 44 24 ec          	mov    %eax,-0x14(%rsp)
  4013e1:	8b 44 24 e4          	mov    -0x1c(%rsp),%eax
  4013e5:	69 c0 f4 e7 00 00    	imul   $0xe7f4,%eax,%eax
  4013eb:	89 44 24 e4          	mov    %eax,-0x1c(%rsp)
  4013ef:	8b 44 24 f4          	mov    -0xc(%rsp),%eax
  4013f3:	69 c0 9d 7c 00 00    	imul   $0x7c9d,%eax,%eax
  4013f9:	89 44 24 f4          	mov    %eax,-0xc(%rsp)
  4013fd:	8b 44 24 f0          	mov    -0x10(%rsp),%eax
  401401:	69 c0 24 cc 00 00    	imul   $0xcc24,%eax,%eax
  401407:	89 44 24 f0          	mov    %eax,-0x10(%rsp)
  40140b:	8b 44 24 e8          	mov    -0x18(%rsp),%eax
  40140f:	69 c0 a8 97 00 00    	imul   $0x97a8,%eax,%eax
  401415:	89 44 24 e8          	mov    %eax,-0x18(%rsp)
  401419:	8b 44 24 dc          	mov    -0x24(%rsp),%eax
  40141d:	69 c0 50 c9 00 00    	imul   $0xc950,%eax,%eax
  401423:	89 44 24 dc          	mov    %eax,-0x24(%rsp)
  401427:	8b 44 24 ec          	mov    -0x14(%rsp),%eax
  40142b:	69 c0 59 f5 00 00    	imul   $0xf559,%eax,%eax
  401431:	89 44 24 ec          	mov    %eax,-0x14(%rsp)
  401435:	8b 44 24 e8          	mov    -0x18(%rsp),%eax
  401439:	69 c0 b6 ef 00 00    	imul   $0xefb6,%eax,%eax
  40143f:	89 44 24 e8          	mov    %eax,-0x18(%rsp)
  401443:	8b 44 24 e0          	mov    -0x20(%rsp),%eax
  401447:	69 c0 14 67 00 00    	imul   $0x6714,%eax,%eax
  40144d:	89 44 24 e0          	mov    %eax,-0x20(%rsp)
  401451:	8b 44 24 e4          	mov    -0x1c(%rsp),%eax
  401455:	69 c0 9d fe 00 00    	imul   $0xfe9d,%eax,%eax
  40145b:	89 44 24 e4          	mov    %eax,-0x1c(%rsp)
  40145f:	8b 44 24 d8          	mov    -0x28(%rsp),%eax
  401463:	69 c0 7c 8b 00 00    	imul   $0x8b7c,%eax,%eax
  401469:	89 44 24 d8          	mov    %eax,-0x28(%rsp)
  40146d:	8b 44 24 d4          	mov    -0x2c(%rsp),%eax
  401471:	69 c0 0b 65 00 00    	imul   $0x650b,%eax,%eax
  401477:	89 44 24 d4          	mov    %eax,-0x2c(%rsp)
  40147b:	8b 44 24 e8          	mov    -0x18(%rsp),%eax
  40147f:	69 c0 32 12 00 00    	imul   $0x1232,%eax,%eax
  401485:	89 44 24 e8          	mov    %eax,-0x18(%rsp)
  401489:	8b 44 24 dc          	mov    -0x24(%rsp),%eax
  40148d:	69 c0 07 a7 00 00    	imul   $0xa707,%eax,%eax
  401493:	89 44 24 dc          	mov    %eax,-0x24(%rsp)
  401497:	8b 44 24 d4          	mov    -0x2c(%rsp),%eax
  40149b:	69 c0 8e 86 00 00    	imul   $0x868e,%eax,%eax
  4014a1:	89 44 24 d4          	mov    %eax,-0x2c(%rsp)
  4014a5:	8b 44 24 d4          	mov    -0x2c(%rsp),%eax
  4014a9:	69 c0 f3 db 00 00    	imul   $0xdbf3,%eax,%eax
  4014af:	89 44 24 d4          	mov    %eax,-0x2c(%rsp)
  4014b3:	8b 44 24 f0          	mov    -0x10(%rsp),%eax
  4014b7:	69 c0 1b 11 00 00    	imul   $0x111b,%eax,%eax
  4014bd:	89 44 24 f0          	mov    %eax,-0x10(%rsp)
  4014c1:	8b 44 24 d8          	mov    -0x28(%rsp),%eax
  4014c5:	69 c0 10 c7 00 00    	imul   $0xc710,%eax,%eax
  4014cb:	89 44 24 d8          	mov    %eax,-0x28(%rsp)
  4014cf:	8b 44 24 d4          	mov    -0x2c(%rsp),%eax
  4014d3:	69 c0 b9 b6 00 00    	imul   $0xb6b9,%eax,%eax
  4014d9:	89 44 24 d4          	mov    %eax,-0x2c(%rsp)
  4014dd:	8b 44 24 dc          	mov    -0x24(%rsp),%eax
  4014e1:	69 c0 ec 6f 00 00    	imul   $0x6fec,%eax,%eax
  4014e7:	89 44 24 dc          	mov    %eax,-0x24(%rsp)
  4014eb:	8b 44 24 f0          	mov    -0x10(%rsp),%eax
  4014ef:	69 c0 9b 9d 00 00    	imul   $0x9d9b,%eax,%eax
  4014f5:	89 44 24 f0          	mov    %eax,-0x10(%rsp)
  4014f9:	8b 44 24 f0          	mov    -0x10(%rsp),%eax
  4014fd:	69 c0 0b d7 00 00    	imul   $0xd70b,%eax,%eax
  401503:	89 44 24 f0          	mov    %eax,-0x10(%rsp)
  401507:	8b 44 24 dc          	mov    -0x24(%rsp),%eax
  40150b:	69 c0 74 47 00 00    	imul   $0x4774,%eax,%eax
  401511:	89 44 24 dc          	mov    %eax,-0x24(%rsp)
  401515:	8b 44 24 d8          	mov    -0x28(%rsp),%eax
  401519:	69 c0 14 a3 00 00    	imul   $0xa314,%eax,%eax
  40151f:	89 44 24 d8          	mov    %eax,-0x28(%rsp)
  401523:	8b 44 24 d0          	mov    -0x30(%rsp),%eax
  401527:	69 c0 ff 92 00 00    	imul   $0x92ff,%eax,%eax
  40152d:	89 44 24 d0          	mov    %eax,-0x30(%rsp)
  401531:	8b 44 24 d8          	mov    -0x28(%rsp),%eax
  401535:	69 c0 30 37 00 00    	imul   $0x3730,%eax,%eax
  40153b:	89 44 24 d8          	mov    %eax,-0x28(%rsp)
  40153f:	8b 44 24 ec          	mov    -0x14(%rsp),%eax
  401543:	69 c0 fa 7f 00 00    	imul   $0x7ffa,%eax,%eax
  401549:	89 44 24 ec          	mov    %eax,-0x14(%rsp)
  40154d:	8b 44 24 dc          	mov    -0x24(%rsp),%eax
  401551:	69 c0 27 0e 00 00    	imul   $0xe27,%eax,%eax
  401557:	89 44 24 dc          	mov    %eax,-0x24(%rsp)
  40155b:	8b 44 24 f0          	mov    -0x10(%rsp),%eax
  40155f:	69 c0 a9 fd 00 00    	imul   $0xfda9,%eax,%eax
  401565:	89 44 24 f0          	mov    %eax,-0x10(%rsp)
  401569:	8b 44 24 d4          	mov    -0x2c(%rsp),%eax
  40156d:	69 c0 30 be 00 00    	imul   $0xbe30,%eax,%eax
  401573:	89 44 24 d4          	mov    %eax,-0x2c(%rsp)
  401577:	8b 44 24 e4          	mov    -0x1c(%rsp),%eax
  40157b:	69 c0 0c 49 00 00    	imul   $0x490c,%eax,%eax
  401581:	89 44 24 e4          	mov    %eax,-0x1c(%rsp)
  401585:	8b 44 24 d4          	mov    -0x2c(%rsp),%eax
  401589:	69 c0 68 4a 00 00    	imul   $0x4a68,%eax,%eax
  40158f:	89 44 24 d4          	mov    %eax,-0x2c(%rsp)
  401593:	8b 44 24 d4          	mov    -0x2c(%rsp),%eax
  401597:	69 c0 0b 5e 00 00    	imul   $0x5e0b,%eax,%eax
  40159d:	89 44 24 d4          	mov    %eax,-0x2c(%rsp)
  4015a1:	8b 44 24 d8          	mov    -0x28(%rsp),%eax
  4015a5:	69 c0 df e7 00 00    	imul   $0xe7df,%eax,%eax
  4015ab:	89 44 24 d8          	mov    %eax,-0x28(%rsp)
  4015af:	8b 44 24 dc          	mov    -0x24(%rsp),%eax
  4015b3:	69 c0 ae a4 00 00    	imul   $0xa4ae,%eax,%eax
  4015b9:	89 44 24 dc          	mov    %eax,-0x24(%rsp)
  4015bd:	8b 44 24 d4          	mov    -0x2c(%rsp),%eax
  4015c1:	69 c0 26 63 00 00    	imul   $0x6326,%eax,%eax
  4015c7:	89 44 24 d4          	mov    %eax,-0x2c(%rsp)
  4015cb:	8b 44 24 ec          	mov    -0x14(%rsp),%eax
  4015cf:	69 c0 07 91 00 00    	imul   $0x9107,%eax,%eax
  4015d5:	89 44 24 ec          	mov    %eax,-0x14(%rsp)
  4015d9:	8b 44 24 f4          	mov    -0xc(%rsp),%eax
  4015dd:	69 c0 3d d5 00 00    	imul   $0xd53d,%eax,%eax
  4015e3:	89 44 24 f4          	mov    %eax,-0xc(%rsp)
  4015e7:	8b 44 24 ec          	mov    -0x14(%rsp),%eax
  4015eb:	69 c0 f2 00 00 00    	imul   $0xf2,%eax,%eax
  4015f1:	89 44 24 ec          	mov    %eax,-0x14(%rsp)
  4015f5:	8b 44 24 f4          	mov    -0xc(%rsp),%eax
  4015f9:	69 c0 04 87 00 00    	imul   $0x8704,%eax,%eax
  4015ff:	89 44 24 f4          	mov    %eax,-0xc(%rsp)
  401603:	8b 44 24 e0          	mov    -0x20(%rsp),%eax
  401607:	69 c0 03 1a 00 00    	imul   $0x1a03,%eax,%eax
  40160d:	89 44 24 e0          	mov    %eax,-0x20(%rsp)
  401611:	8b 44 24 d8          	mov    -0x28(%rsp),%eax
  401615:	69 c0 6d b2 00 00    	imul   $0xb26d,%eax,%eax
  40161b:	89 44 24 d8          	mov    %eax,-0x28(%rsp)
  40161f:	8b 44 24 f0          	mov    -0x10(%rsp),%eax
  401623:	69 c0 6f 5a 00 00    	imul   $0x5a6f,%eax,%eax
  401629:	89 44 24 f0          	mov    %eax,-0x10(%rsp)
  40162d:	8b 44 24 ec          	mov    -0x14(%rsp),%eax
  401631:	69 c0 2b 2c 00 00    	imul   $0x2c2b,%eax,%eax
  401637:	89 44 24 ec          	mov    %eax,-0x14(%rsp)
  40163b:	8b 44 24 e4          	mov    -0x1c(%rsp),%eax
  40163f:	69 c0 c3 75 00 00    	imul   $0x75c3,%eax,%eax
  401645:	89 44 24 e4          	mov    %eax,-0x1c(%rsp)
  401649:	8b 44 24 f4          	mov    -0xc(%rsp),%eax
  40164d:	69 c0 50 dc 00 00    	imul   $0xdc50,%eax,%eax
  401653:	89 44 24 f4          	mov    %eax,-0xc(%rsp)
  401657:	8b 44 24 dc          	mov    -0x24(%rsp),%eax
  40165b:	69 c0 7e 84 00 00    	imul   $0x847e,%eax,%eax
  401661:	89 44 24 dc          	mov    %eax,-0x24(%rsp)
  401665:	8b 44 24 e0          	mov    -0x20(%rsp),%eax
  401669:	69 c0 f6 18 00 00    	imul   $0x18f6,%eax,%eax
  40166f:	89 44 24 e0          	mov    %eax,-0x20(%rsp)
  401673:	8b 44 24 ec          	mov    -0x14(%rsp),%eax
  401677:	69 c0 32 38 00 00    	imul   $0x3832,%eax,%eax
  40167d:	89 44 24 ec          	mov    %eax,-0x14(%rsp)
  401681:	8b 44 24 e8          	mov    -0x18(%rsp),%eax
  401685:	69 c0 4e f7 00 00    	imul   $0xf74e,%eax,%eax
  40168b:	89 44 24 e8          	mov    %eax,-0x18(%rsp)
  40168f:	8b 44 24 e8          	mov    -0x18(%rsp),%eax
  401693:	69 c0 a0 58 00 00    	imul   $0x58a0,%eax,%eax
  401699:	89 44 24 e8          	mov    %eax,-0x18(%rsp)
  40169d:	8b 44 24 e4          	mov    -0x1c(%rsp),%eax
  4016a1:	69 c0 29 1f 00 00    	imul   $0x1f29,%eax,%eax
  4016a7:	89 44 24 e4          	mov    %eax,-0x1c(%rsp)
  4016ab:	8b 44 24 d0          	mov    -0x30(%rsp),%eax
  4016af:	69 c0 a5 94 00 00    	imul   $0x94a5,%eax,%eax
  4016b5:	89 44 24 d0          	mov    %eax,-0x30(%rsp)
  4016b9:	8b 44 24 dc          	mov    -0x24(%rsp),%eax
  4016bd:	69 c0 23 c2 00 00    	imul   $0xc223,%eax,%eax
  4016c3:	89 44 24 dc          	mov    %eax,-0x24(%rsp)
  4016c7:	8b 44 24 d4          	mov    -0x2c(%rsp),%eax
  4016cb:	69 c0 b7 6c 00 00    	imul   $0x6cb7,%eax,%eax
  4016d1:	89 44 24 d4          	mov    %eax,-0x2c(%rsp)
  4016d5:	8b 44 24 e4          	mov    -0x1c(%rsp),%eax
  4016d9:	69 c0 89 29 00 00    	imul   $0x2989,%eax,%eax
  4016df:	89 44 24 e4          	mov    %eax,-0x1c(%rsp)
  4016e3:	8b 44 24 f0          	mov    -0x10(%rsp),%eax
  4016e7:	69 c0 5b 07 00 00    	imul   $0x75b,%eax,%eax
  4016ed:	89 44 24 f0          	mov    %eax,-0x10(%rsp)
  4016f1:	8b 44 24 f0          	mov    -0x10(%rsp),%eax
  4016f5:	69 c0 b9 20 00 00    	imul   $0x20b9,%eax,%eax
  4016fb:	89 44 24 f0          	mov    %eax,-0x10(%rsp)
  4016ff:	8b 44 24 e8          	mov    -0x18(%rsp),%eax
  401703:	69 c0 8b 9c 00 00    	imul   $0x9c8b,%eax,%eax
  401709:	89 44 24 e8          	mov    %eax,-0x18(%rsp)
  40170d:	8b 44 24 e8          	mov    -0x18(%rsp),%eax
  401711:	69 c0 e3 b9 00 00    	imul   $0xb9e3,%eax,%eax
  401717:	89 44 24 e8          	mov    %eax,-0x18(%rsp)
  40171b:	8b 44 24 e8          	mov    -0x18(%rsp),%eax
  40171f:	69 c0 3f 37 00 00    	imul   $0x373f,%eax,%eax
  401725:	89 44 24 e8          	mov    %eax,-0x18(%rsp)
  401729:	8b 44 24 d4          	mov    -0x2c(%rsp),%eax
  40172d:	69 c0 1d d1 00 00    	imul   $0xd11d,%eax,%eax
  401733:	89 44 24 d4          	mov    %eax,-0x2c(%rsp)
  401737:	8b 44 24 ec          	mov    -0x14(%rsp),%eax
  40173b:	69 c0 ed bc 00 00    	imul   $0xbced,%eax,%eax
  401741:	89 44 24 ec          	mov    %eax,-0x14(%rsp)
  401745:	8b 44 24 e4          	mov    -0x1c(%rsp),%eax
  401749:	69 c0 47 9e 00 00    	imul   $0x9e47,%eax,%eax
  40174f:	89 44 24 e4          	mov    %eax,-0x1c(%rsp)
  401753:	8b 44 24 e8          	mov    -0x18(%rsp),%eax
  401757:	69 c0 e8 ea 00 00    	imul   $0xeae8,%eax,%eax
  40175d:	89 44 24 e8          	mov    %eax,-0x18(%rsp)
  401761:	8b 44 24 e8          	mov    -0x18(%rsp),%eax
  401765:	69 c0 ff d1 00 00    	imul   $0xd1ff,%eax,%eax
  40176b:	89 44 24 e8          	mov    %eax,-0x18(%rsp)
  40176f:	8b 44 24 d8          	mov    -0x28(%rsp),%eax
  401773:	69 c0 0a f0 00 00    	imul   $0xf00a,%eax,%eax
  401779:	89 44 24 d8          	mov    %eax,-0x28(%rsp)
  40177d:	8b 44 24 f0          	mov    -0x10(%rsp),%eax
  401781:	69 c0 2f 2d 00 00    	imul   $0x2d2f,%eax,%eax
  401787:	89 44 24 f0          	mov    %eax,-0x10(%rsp)
  40178b:	8b 44 24 d0          	mov    -0x30(%rsp),%eax
  40178f:	69 c0 8e e5 00 00    	imul   $0xe58e,%eax,%eax
  401795:	89 44 24 d0          	mov    %eax,-0x30(%rsp)
  401799:	ba 00 00 00 00       	mov    $0x0,%edx
  40179e:	b8 00 00 00 00       	mov    $0x0,%eax
  4017a3:	eb 0b                	jmp    4017b0 <scramble+0x53c>
  4017a5:	89 d1                	mov    %edx,%ecx
  4017a7:	8b 4c 8c d0          	mov    -0x30(%rsp,%rcx,4),%ecx
  4017ab:	01 c8                	add    %ecx,%eax
  4017ad:	83 c2 01             	add    $0x1,%edx
  4017b0:	83 fa 09             	cmp    $0x9,%edx
  4017b3:	76 f0                	jbe    4017a5 <scramble+0x531>
  4017b5:	f3 c3                	repz retq 

00000000004017b7 <getbuf>:
  4017b7:	48 83 ec 38          	sub    $0x38,%rsp
  4017bb:	48 89 e7             	mov    %rsp,%rdi
  4017be:	e8 44 02 00 00       	callq  401a07 <Gets>
  4017c3:	b8 01 00 00 00       	mov    $0x1,%eax
  4017c8:	48 83 c4 38          	add    $0x38,%rsp
  4017cc:	c3                   	retq   

00000000004017cd <touch1>:
  4017cd:	48 83 ec 08          	sub    $0x8,%rsp
  4017d1:	c7 05 21 2d 20 00 01 	movl   $0x1,0x202d21(%rip)        # 6044fc <vlevel>
  4017d8:	00 00 00 
  4017db:	48 8d 3d 91 17 00 00 	lea    0x1791(%rip),%rdi        # 402f73 <_IO_stdin_used+0x2a3>
  4017e2:	e8 49 f4 ff ff       	callq  400c30 <puts@plt>
  4017e7:	bf 01 00 00 00       	mov    $0x1,%edi
  4017ec:	e8 2d 04 00 00       	callq  401c1e <validate>
  4017f1:	bf 00 00 00 00       	mov    $0x0,%edi
  4017f6:	e8 b5 f5 ff ff       	callq  400db0 <exit@plt>

00000000004017fb <touch2>:
  4017fb:	48 83 ec 08          	sub    $0x8,%rsp
  4017ff:	89 fe                	mov    %edi,%esi
  401801:	c7 05 f1 2c 20 00 02 	movl   $0x2,0x202cf1(%rip)        # 6044fc <vlevel>
  401808:	00 00 00 
  40180b:	39 3d f3 2c 20 00    	cmp    %edi,0x202cf3(%rip)        # 604504 <cookie>
  401811:	74 25                	je     401838 <touch2+0x3d>
  401813:	48 8d 3d a6 17 00 00 	lea    0x17a6(%rip),%rdi        # 402fc0 <_IO_stdin_used+0x2f0>
  40181a:	b8 00 00 00 00       	mov    $0x0,%eax
  40181f:	e8 3c f4 ff ff       	callq  400c60 <printf@plt>
  401824:	bf 02 00 00 00       	mov    $0x2,%edi
  401829:	e8 ae 04 00 00       	callq  401cdc <fail>
  40182e:	bf 00 00 00 00       	mov    $0x0,%edi
  401833:	e8 78 f5 ff ff       	callq  400db0 <exit@plt>
  401838:	48 8d 3d 59 17 00 00 	lea    0x1759(%rip),%rdi        # 402f98 <_IO_stdin_used+0x2c8>
  40183f:	b8 00 00 00 00       	mov    $0x0,%eax
  401844:	e8 17 f4 ff ff       	callq  400c60 <printf@plt>
  401849:	bf 02 00 00 00       	mov    $0x2,%edi
  40184e:	e8 cb 03 00 00       	callq  401c1e <validate>
  401853:	eb d9                	jmp    40182e <touch2+0x33>

0000000000401855 <hexmatch>:
  401855:	41 54                	push   %r12
  401857:	55                   	push   %rbp
  401858:	53                   	push   %rbx
  401859:	48 83 ec 70          	sub    $0x70,%rsp
  40185d:	89 fd                	mov    %edi,%ebp
  40185f:	48 89 f3             	mov    %rsi,%rbx
  401862:	e8 a9 f4 ff ff       	callq  400d10 <random@plt>
  401867:	48 89 c1             	mov    %rax,%rcx
  40186a:	48 ba 0b d7 a3 70 3d 	movabs $0xa3d70a3d70a3d70b,%rdx
  401871:	0a d7 a3 
  401874:	48 f7 ea             	imul   %rdx
  401877:	48 01 ca             	add    %rcx,%rdx
  40187a:	48 c1 fa 06          	sar    $0x6,%rdx
  40187e:	48 89 c8             	mov    %rcx,%rax
  401881:	48 c1 f8 3f          	sar    $0x3f,%rax
  401885:	48 29 c2             	sub    %rax,%rdx
  401888:	48 8d 04 92          	lea    (%rdx,%rdx,4),%rax
  40188c:	48 8d 14 80          	lea    (%rax,%rax,4),%rdx
  401890:	48 8d 04 95 00 00 00 	lea    0x0(,%rdx,4),%rax
  401897:	00 
  401898:	48 29 c1             	sub    %rax,%rcx
  40189b:	4c 8d 24 0c          	lea    (%rsp,%rcx,1),%r12
  40189f:	89 ea                	mov    %ebp,%edx
  4018a1:	48 8d 35 e8 16 00 00 	lea    0x16e8(%rip),%rsi        # 402f90 <_IO_stdin_used+0x2c0>
  4018a8:	4c 89 e7             	mov    %r12,%rdi
  4018ab:	b8 00 00 00 00       	mov    $0x0,%eax
  4018b0:	e8 eb f4 ff ff       	callq  400da0 <sprintf@plt>
  4018b5:	ba 09 00 00 00       	mov    $0x9,%edx
  4018ba:	4c 89 e6             	mov    %r12,%rsi
  4018bd:	48 89 df             	mov    %rbx,%rdi
  4018c0:	e8 4b f3 ff ff       	callq  400c10 <strncmp@plt>
  4018c5:	85 c0                	test   %eax,%eax
  4018c7:	0f 94 c0             	sete   %al
  4018ca:	0f b6 c0             	movzbl %al,%eax
  4018cd:	48 83 c4 70          	add    $0x70,%rsp
  4018d1:	5b                   	pop    %rbx
  4018d2:	5d                   	pop    %rbp
  4018d3:	41 5c                	pop    %r12
  4018d5:	c3                   	retq   

00000000004018d6 <touch3>:
  4018d6:	53                   	push   %rbx
  4018d7:	48 89 fb             	mov    %rdi,%rbx
  4018da:	c7 05 18 2c 20 00 03 	movl   $0x3,0x202c18(%rip)        # 6044fc <vlevel>
  4018e1:	00 00 00 
  4018e4:	48 89 fe             	mov    %rdi,%rsi
  4018e7:	8b 3d 17 2c 20 00    	mov    0x202c17(%rip),%edi        # 604504 <cookie>
  4018ed:	e8 63 ff ff ff       	callq  401855 <hexmatch>
  4018f2:	85 c0                	test   %eax,%eax
  4018f4:	74 28                	je     40191e <touch3+0x48>
  4018f6:	48 89 de             	mov    %rbx,%rsi
  4018f9:	48 8d 3d e8 16 00 00 	lea    0x16e8(%rip),%rdi        # 402fe8 <_IO_stdin_used+0x318>
  401900:	b8 00 00 00 00       	mov    $0x0,%eax
  401905:	e8 56 f3 ff ff       	callq  400c60 <printf@plt>
  40190a:	bf 03 00 00 00       	mov    $0x3,%edi
  40190f:	e8 0a 03 00 00       	callq  401c1e <validate>
  401914:	bf 00 00 00 00       	mov    $0x0,%edi
  401919:	e8 92 f4 ff ff       	callq  400db0 <exit@plt>
  40191e:	48 89 de             	mov    %rbx,%rsi
  401921:	48 8d 3d e8 16 00 00 	lea    0x16e8(%rip),%rdi        # 403010 <_IO_stdin_used+0x340>
  401928:	b8 00 00 00 00       	mov    $0x0,%eax
  40192d:	e8 2e f3 ff ff       	callq  400c60 <printf@plt>
  401932:	bf 03 00 00 00       	mov    $0x3,%edi
  401937:	e8 a0 03 00 00       	callq  401cdc <fail>
  40193c:	eb d6                	jmp    401914 <touch3+0x3e>

000000000040193e <test>:
  40193e:	48 83 ec 08          	sub    $0x8,%rsp
  401942:	b8 00 00 00 00       	mov    $0x0,%eax
  401947:	e8 6b fe ff ff       	callq  4017b7 <getbuf>
  40194c:	89 c6                	mov    %eax,%esi
  40194e:	48 8d 3d e3 16 00 00 	lea    0x16e3(%rip),%rdi        # 403038 <_IO_stdin_used+0x368>
  401955:	b8 00 00 00 00       	mov    $0x0,%eax
  40195a:	e8 01 f3 ff ff       	callq  400c60 <printf@plt>
  40195f:	48 83 c4 08          	add    $0x8,%rsp
  401963:	c3                   	retq   

0000000000401964 <save_char>:
  401964:	8b 05 ba 37 20 00    	mov    0x2037ba(%rip),%eax        # 605124 <gets_cnt>
  40196a:	3d ff 03 00 00       	cmp    $0x3ff,%eax
  40196f:	7f 4a                	jg     4019bb <save_char+0x57>
  401971:	8d 14 40             	lea    (%rax,%rax,2),%edx
  401974:	89 f9                	mov    %edi,%ecx
  401976:	c0 e9 04             	shr    $0x4,%cl
  401979:	4c 8d 05 e0 19 00 00 	lea    0x19e0(%rip),%r8        # 403360 <trans_char>
  401980:	83 e1 0f             	and    $0xf,%ecx
  401983:	45 0f b6 0c 08       	movzbl (%r8,%rcx,1),%r9d
  401988:	48 8d 0d 91 2b 20 00 	lea    0x202b91(%rip),%rcx        # 604520 <gets_buf>
  40198f:	48 63 f2             	movslq %edx,%rsi
  401992:	44 88 0c 31          	mov    %r9b,(%rcx,%rsi,1)
  401996:	8d 72 01             	lea    0x1(%rdx),%esi
  401999:	83 e7 0f             	and    $0xf,%edi
  40199c:	41 0f b6 3c 38       	movzbl (%r8,%rdi,1),%edi
  4019a1:	48 63 f6             	movslq %esi,%rsi
  4019a4:	40 88 3c 31          	mov    %dil,(%rcx,%rsi,1)
  4019a8:	83 c2 02             	add    $0x2,%edx
  4019ab:	48 63 d2             	movslq %edx,%rdx
  4019ae:	c6 04 11 20          	movb   $0x20,(%rcx,%rdx,1)
  4019b2:	83 c0 01             	add    $0x1,%eax
  4019b5:	89 05 69 37 20 00    	mov    %eax,0x203769(%rip)        # 605124 <gets_cnt>
  4019bb:	f3 c3                	repz retq 

00000000004019bd <save_term>:
  4019bd:	8b 05 61 37 20 00    	mov    0x203761(%rip),%eax        # 605124 <gets_cnt>
  4019c3:	8d 04 40             	lea    (%rax,%rax,2),%eax
  4019c6:	48 98                	cltq   
  4019c8:	48 8d 15 51 2b 20 00 	lea    0x202b51(%rip),%rdx        # 604520 <gets_buf>
  4019cf:	c6 04 02 00          	movb   $0x0,(%rdx,%rax,1)
  4019d3:	c3                   	retq   

00000000004019d4 <check_fail>:
  4019d4:	48 83 ec 08          	sub    $0x8,%rsp
  4019d8:	0f be 35 49 37 20 00 	movsbl 0x203749(%rip),%esi        # 605128 <target_prefix>
  4019df:	48 8d 0d 3a 2b 20 00 	lea    0x202b3a(%rip),%rcx        # 604520 <gets_buf>
  4019e6:	8b 15 0c 2b 20 00    	mov    0x202b0c(%rip),%edx        # 6044f8 <check_level>
  4019ec:	48 8d 3d 68 16 00 00 	lea    0x1668(%rip),%rdi        # 40305b <_IO_stdin_used+0x38b>
  4019f3:	b8 00 00 00 00       	mov    $0x0,%eax
  4019f8:	e8 63 f2 ff ff       	callq  400c60 <printf@plt>
  4019fd:	bf 01 00 00 00       	mov    $0x1,%edi
  401a02:	e8 a9 f3 ff ff       	callq  400db0 <exit@plt>

0000000000401a07 <Gets>:
  401a07:	41 54                	push   %r12
  401a09:	55                   	push   %rbp
  401a0a:	53                   	push   %rbx
  401a0b:	49 89 fc             	mov    %rdi,%r12
  401a0e:	c7 05 0c 37 20 00 00 	movl   $0x0,0x20370c(%rip)        # 605124 <gets_cnt>
  401a15:	00 00 00 
  401a18:	48 89 fb             	mov    %rdi,%rbx
  401a1b:	eb 11                	jmp    401a2e <Gets+0x27>
  401a1d:	48 8d 6b 01          	lea    0x1(%rbx),%rbp
  401a21:	88 03                	mov    %al,(%rbx)
  401a23:	0f b6 f8             	movzbl %al,%edi
  401a26:	e8 39 ff ff ff       	callq  401964 <save_char>
  401a2b:	48 89 eb             	mov    %rbp,%rbx
  401a2e:	48 8b 3d bb 2a 20 00 	mov    0x202abb(%rip),%rdi        # 6044f0 <infile>
  401a35:	e8 e6 f2 ff ff       	callq  400d20 <_IO_getc@plt>
  401a3a:	83 f8 ff             	cmp    $0xffffffff,%eax
  401a3d:	74 05                	je     401a44 <Gets+0x3d>
  401a3f:	83 f8 0a             	cmp    $0xa,%eax
  401a42:	75 d9                	jne    401a1d <Gets+0x16>
  401a44:	c6 03 00             	movb   $0x0,(%rbx)
  401a47:	b8 00 00 00 00       	mov    $0x0,%eax
  401a4c:	e8 6c ff ff ff       	callq  4019bd <save_term>
  401a51:	4c 89 e0             	mov    %r12,%rax
  401a54:	5b                   	pop    %rbx
  401a55:	5d                   	pop    %rbp
  401a56:	41 5c                	pop    %r12
  401a58:	c3                   	retq   

0000000000401a59 <notify_server>:
  401a59:	83 3d a8 2a 20 00 00 	cmpl   $0x0,0x202aa8(%rip)        # 604508 <is_checker>
  401a60:	0f 85 de 00 00 00    	jne    401b44 <notify_server+0xeb>
  401a66:	55                   	push   %rbp
  401a67:	53                   	push   %rbx
  401a68:	48 81 ec 08 40 00 00 	sub    $0x4008,%rsp
  401a6f:	89 fb                	mov    %edi,%ebx
  401a71:	8b 05 ad 36 20 00    	mov    0x2036ad(%rip),%eax        # 605124 <gets_cnt>
  401a77:	83 c0 64             	add    $0x64,%eax
  401a7a:	3d 00 20 00 00       	cmp    $0x2000,%eax
  401a7f:	0f 8f c1 00 00 00    	jg     401b46 <notify_server+0xed>
  401a85:	44 0f be 0d 9b 36 20 	movsbl 0x20369b(%rip),%r9d        # 605128 <target_prefix>
  401a8c:	00 
  401a8d:	83 3d f4 29 20 00 00 	cmpl   $0x0,0x2029f4(%rip)        # 604488 <notify>
  401a94:	0f 84 c7 00 00 00    	je     401b61 <notify_server+0x108>
  401a9a:	44 8b 05 5f 2a 20 00 	mov    0x202a5f(%rip),%r8d        # 604500 <authkey>
  401aa1:	85 db                	test   %ebx,%ebx
  401aa3:	0f 84 c3 00 00 00    	je     401b6c <notify_server+0x113>
  401aa9:	48 8d 2d c1 15 00 00 	lea    0x15c1(%rip),%rbp        # 403071 <_IO_stdin_used+0x3a1>
  401ab0:	48 8d bc 24 00 20 00 	lea    0x2000(%rsp),%rdi
  401ab7:	00 
  401ab8:	48 8d 05 61 2a 20 00 	lea    0x202a61(%rip),%rax        # 604520 <gets_buf>
  401abf:	50                   	push   %rax
  401ac0:	56                   	push   %rsi
  401ac1:	48 89 e9             	mov    %rbp,%rcx
  401ac4:	8b 15 66 26 20 00    	mov    0x202666(%rip),%edx        # 604130 <target_id>
  401aca:	48 8d 35 aa 15 00 00 	lea    0x15aa(%rip),%rsi        # 40307b <_IO_stdin_used+0x3ab>
  401ad1:	b8 00 00 00 00       	mov    $0x0,%eax
  401ad6:	e8 c5 f2 ff ff       	callq  400da0 <sprintf@plt>
  401adb:	48 83 c4 10          	add    $0x10,%rsp
  401adf:	83 3d a2 29 20 00 00 	cmpl   $0x0,0x2029a2(%rip)        # 604488 <notify>
  401ae6:	0f 84 b8 00 00 00    	je     401ba4 <notify_server+0x14b>
  401aec:	85 db                	test   %ebx,%ebx
  401aee:	0f 84 a2 00 00 00    	je     401b96 <notify_server+0x13d>
  401af4:	48 8d 8c 24 00 20 00 	lea    0x2000(%rsp),%rcx
  401afb:	00 
  401afc:	49 89 e1             	mov    %rsp,%r9
  401aff:	41 b8 00 00 00 00    	mov    $0x0,%r8d
  401b05:	48 8b 15 3c 26 20 00 	mov    0x20263c(%rip),%rdx        # 604148 <lab>
  401b0c:	48 8b 35 3d 26 20 00 	mov    0x20263d(%rip),%rsi        # 604150 <course>
  401b13:	48 8b 3d 26 26 20 00 	mov    0x202626(%rip),%rdi        # 604140 <user_id>
  401b1a:	e8 6e 10 00 00       	callq  402b8d <driver_post>
  401b1f:	85 c0                	test   %eax,%eax
  401b21:	78 55                	js     401b78 <notify_server+0x11f>
  401b23:	48 8d 3d 96 16 00 00 	lea    0x1696(%rip),%rdi        # 4031c0 <_IO_stdin_used+0x4f0>
  401b2a:	e8 01 f1 ff ff       	callq  400c30 <puts@plt>
  401b2f:	48 8d 3d 6d 15 00 00 	lea    0x156d(%rip),%rdi        # 4030a3 <_IO_stdin_used+0x3d3>
  401b36:	e8 f5 f0 ff ff       	callq  400c30 <puts@plt>
  401b3b:	48 81 c4 08 40 00 00 	add    $0x4008,%rsp
  401b42:	5b                   	pop    %rbx
  401b43:	5d                   	pop    %rbp
  401b44:	f3 c3                	repz retq 
  401b46:	48 8d 3d 43 16 00 00 	lea    0x1643(%rip),%rdi        # 403190 <_IO_stdin_used+0x4c0>
  401b4d:	b8 00 00 00 00       	mov    $0x0,%eax
  401b52:	e8 09 f1 ff ff       	callq  400c60 <printf@plt>
  401b57:	bf 01 00 00 00       	mov    $0x1,%edi
  401b5c:	e8 4f f2 ff ff       	callq  400db0 <exit@plt>
  401b61:	41 b8 ff ff ff ff    	mov    $0xffffffff,%r8d
  401b67:	e9 35 ff ff ff       	jmpq   401aa1 <notify_server+0x48>
  401b6c:	48 8d 2d 03 15 00 00 	lea    0x1503(%rip),%rbp        # 403076 <_IO_stdin_used+0x3a6>
  401b73:	e9 38 ff ff ff       	jmpq   401ab0 <notify_server+0x57>
  401b78:	48 89 e6             	mov    %rsp,%rsi
  401b7b:	48 8d 3d 15 15 00 00 	lea    0x1515(%rip),%rdi        # 403097 <_IO_stdin_used+0x3c7>
  401b82:	b8 00 00 00 00       	mov    $0x0,%eax
  401b87:	e8 d4 f0 ff ff       	callq  400c60 <printf@plt>
  401b8c:	bf 01 00 00 00       	mov    $0x1,%edi
  401b91:	e8 1a f2 ff ff       	callq  400db0 <exit@plt>
  401b96:	48 8d 3d 10 15 00 00 	lea    0x1510(%rip),%rdi        # 4030ad <_IO_stdin_used+0x3dd>
  401b9d:	e8 8e f0 ff ff       	callq  400c30 <puts@plt>
  401ba2:	eb 97                	jmp    401b3b <notify_server+0xe2>
  401ba4:	48 89 ee             	mov    %rbp,%rsi
  401ba7:	48 8d 3d 4a 16 00 00 	lea    0x164a(%rip),%rdi        # 4031f8 <_IO_stdin_used+0x528>
  401bae:	b8 00 00 00 00       	mov    $0x0,%eax
  401bb3:	e8 a8 f0 ff ff       	callq  400c60 <printf@plt>
  401bb8:	48 8b 35 81 25 20 00 	mov    0x202581(%rip),%rsi        # 604140 <user_id>
  401bbf:	48 8d 3d ee 14 00 00 	lea    0x14ee(%rip),%rdi        # 4030b4 <_IO_stdin_used+0x3e4>
  401bc6:	b8 00 00 00 00       	mov    $0x0,%eax
  401bcb:	e8 90 f0 ff ff       	callq  400c60 <printf@plt>
  401bd0:	48 8b 35 79 25 20 00 	mov    0x202579(%rip),%rsi        # 604150 <course>
  401bd7:	48 8d 3d e3 14 00 00 	lea    0x14e3(%rip),%rdi        # 4030c1 <_IO_stdin_used+0x3f1>
  401bde:	b8 00 00 00 00       	mov    $0x0,%eax
  401be3:	e8 78 f0 ff ff       	callq  400c60 <printf@plt>
  401be8:	48 8b 35 59 25 20 00 	mov    0x202559(%rip),%rsi        # 604148 <lab>
  401bef:	48 8d 3d d7 14 00 00 	lea    0x14d7(%rip),%rdi        # 4030cd <_IO_stdin_used+0x3fd>
  401bf6:	b8 00 00 00 00       	mov    $0x0,%eax
  401bfb:	e8 60 f0 ff ff       	callq  400c60 <printf@plt>
  401c00:	48 8d b4 24 00 20 00 	lea    0x2000(%rsp),%rsi
  401c07:	00 
  401c08:	48 8d 3d c7 14 00 00 	lea    0x14c7(%rip),%rdi        # 4030d6 <_IO_stdin_used+0x406>
  401c0f:	b8 00 00 00 00       	mov    $0x0,%eax
  401c14:	e8 47 f0 ff ff       	callq  400c60 <printf@plt>
  401c19:	e9 1d ff ff ff       	jmpq   401b3b <notify_server+0xe2>

0000000000401c1e <validate>:
  401c1e:	53                   	push   %rbx
  401c1f:	89 fb                	mov    %edi,%ebx
  401c21:	83 3d e0 28 20 00 00 	cmpl   $0x0,0x2028e0(%rip)        # 604508 <is_checker>
  401c28:	74 68                	je     401c92 <validate+0x74>
  401c2a:	39 3d cc 28 20 00    	cmp    %edi,0x2028cc(%rip)        # 6044fc <vlevel>
  401c30:	75 2d                	jne    401c5f <validate+0x41>
  401c32:	8b 35 c0 28 20 00    	mov    0x2028c0(%rip),%esi        # 6044f8 <check_level>
  401c38:	39 f7                	cmp    %esi,%edi
  401c3a:	75 39                	jne    401c75 <validate+0x57>
  401c3c:	0f be 35 e5 34 20 00 	movsbl 0x2034e5(%rip),%esi        # 605128 <target_prefix>
  401c43:	48 8d 0d d6 28 20 00 	lea    0x2028d6(%rip),%rcx        # 604520 <gets_buf>
  401c4a:	89 fa                	mov    %edi,%edx
  401c4c:	48 8d 3d ad 14 00 00 	lea    0x14ad(%rip),%rdi        # 403100 <_IO_stdin_used+0x430>
  401c53:	b8 00 00 00 00       	mov    $0x0,%eax
  401c58:	e8 03 f0 ff ff       	callq  400c60 <printf@plt>
  401c5d:	5b                   	pop    %rbx
  401c5e:	c3                   	retq   
  401c5f:	48 8d 3d 7c 14 00 00 	lea    0x147c(%rip),%rdi        # 4030e2 <_IO_stdin_used+0x412>
  401c66:	e8 c5 ef ff ff       	callq  400c30 <puts@plt>
  401c6b:	b8 00 00 00 00       	mov    $0x0,%eax
  401c70:	e8 5f fd ff ff       	callq  4019d4 <check_fail>
  401c75:	89 fa                	mov    %edi,%edx
  401c77:	48 8d 3d a2 15 00 00 	lea    0x15a2(%rip),%rdi        # 403220 <_IO_stdin_used+0x550>
  401c7e:	b8 00 00 00 00       	mov    $0x0,%eax
  401c83:	e8 d8 ef ff ff       	callq  400c60 <printf@plt>
  401c88:	b8 00 00 00 00       	mov    $0x0,%eax
  401c8d:	e8 42 fd ff ff       	callq  4019d4 <check_fail>
  401c92:	3b 3d 64 28 20 00    	cmp    0x202864(%rip),%edi        # 6044fc <vlevel>
  401c98:	74 1a                	je     401cb4 <validate+0x96>
  401c9a:	48 8d 3d 41 14 00 00 	lea    0x1441(%rip),%rdi        # 4030e2 <_IO_stdin_used+0x412>
  401ca1:	e8 8a ef ff ff       	callq  400c30 <puts@plt>
  401ca6:	89 de                	mov    %ebx,%esi
  401ca8:	bf 00 00 00 00       	mov    $0x0,%edi
  401cad:	e8 a7 fd ff ff       	callq  401a59 <notify_server>
  401cb2:	eb a9                	jmp    401c5d <validate+0x3f>
  401cb4:	0f be 15 6d 34 20 00 	movsbl 0x20346d(%rip),%edx        # 605128 <target_prefix>
  401cbb:	89 fe                	mov    %edi,%esi
  401cbd:	48 8d 3d 84 15 00 00 	lea    0x1584(%rip),%rdi        # 403248 <_IO_stdin_used+0x578>
  401cc4:	b8 00 00 00 00       	mov    $0x0,%eax
  401cc9:	e8 92 ef ff ff       	callq  400c60 <printf@plt>
  401cce:	89 de                	mov    %ebx,%esi
  401cd0:	bf 01 00 00 00       	mov    $0x1,%edi
  401cd5:	e8 7f fd ff ff       	callq  401a59 <notify_server>
  401cda:	eb 81                	jmp    401c5d <validate+0x3f>

0000000000401cdc <fail>:
  401cdc:	48 83 ec 08          	sub    $0x8,%rsp
  401ce0:	83 3d 21 28 20 00 00 	cmpl   $0x0,0x202821(%rip)        # 604508 <is_checker>
  401ce7:	75 11                	jne    401cfa <fail+0x1e>
  401ce9:	89 fe                	mov    %edi,%esi
  401ceb:	bf 00 00 00 00       	mov    $0x0,%edi
  401cf0:	e8 64 fd ff ff       	callq  401a59 <notify_server>
  401cf5:	48 83 c4 08          	add    $0x8,%rsp
  401cf9:	c3                   	retq   
  401cfa:	b8 00 00 00 00       	mov    $0x0,%eax
  401cff:	e8 d0 fc ff ff       	callq  4019d4 <check_fail>

0000000000401d04 <bushandler>:
  401d04:	48 83 ec 08          	sub    $0x8,%rsp
  401d08:	83 3d f9 27 20 00 00 	cmpl   $0x0,0x2027f9(%rip)        # 604508 <is_checker>
  401d0f:	74 16                	je     401d27 <bushandler+0x23>
  401d11:	48 8d 3d fd 13 00 00 	lea    0x13fd(%rip),%rdi        # 403115 <_IO_stdin_used+0x445>
  401d18:	e8 13 ef ff ff       	callq  400c30 <puts@plt>
  401d1d:	b8 00 00 00 00       	mov    $0x0,%eax
  401d22:	e8 ad fc ff ff       	callq  4019d4 <check_fail>
  401d27:	48 8d 3d 52 15 00 00 	lea    0x1552(%rip),%rdi        # 403280 <_IO_stdin_used+0x5b0>
  401d2e:	e8 fd ee ff ff       	callq  400c30 <puts@plt>
  401d33:	48 8d 3d e5 13 00 00 	lea    0x13e5(%rip),%rdi        # 40311f <_IO_stdin_used+0x44f>
  401d3a:	e8 f1 ee ff ff       	callq  400c30 <puts@plt>
  401d3f:	be 00 00 00 00       	mov    $0x0,%esi
  401d44:	bf 00 00 00 00       	mov    $0x0,%edi
  401d49:	e8 0b fd ff ff       	callq  401a59 <notify_server>
  401d4e:	bf 01 00 00 00       	mov    $0x1,%edi
  401d53:	e8 58 f0 ff ff       	callq  400db0 <exit@plt>

0000000000401d58 <seghandler>:
  401d58:	48 83 ec 08          	sub    $0x8,%rsp
  401d5c:	83 3d a5 27 20 00 00 	cmpl   $0x0,0x2027a5(%rip)        # 604508 <is_checker>
  401d63:	74 16                	je     401d7b <seghandler+0x23>
  401d65:	48 8d 3d c9 13 00 00 	lea    0x13c9(%rip),%rdi        # 403135 <_IO_stdin_used+0x465>
  401d6c:	e8 bf ee ff ff       	callq  400c30 <puts@plt>
  401d71:	b8 00 00 00 00       	mov    $0x0,%eax
  401d76:	e8 59 fc ff ff       	callq  4019d4 <check_fail>
  401d7b:	48 8d 3d 1e 15 00 00 	lea    0x151e(%rip),%rdi        # 4032a0 <_IO_stdin_used+0x5d0>
  401d82:	e8 a9 ee ff ff       	callq  400c30 <puts@plt>
  401d87:	48 8d 3d 91 13 00 00 	lea    0x1391(%rip),%rdi        # 40311f <_IO_stdin_used+0x44f>
  401d8e:	e8 9d ee ff ff       	callq  400c30 <puts@plt>
  401d93:	be 00 00 00 00       	mov    $0x0,%esi
  401d98:	bf 00 00 00 00       	mov    $0x0,%edi
  401d9d:	e8 b7 fc ff ff       	callq  401a59 <notify_server>
  401da2:	bf 01 00 00 00       	mov    $0x1,%edi
  401da7:	e8 04 f0 ff ff       	callq  400db0 <exit@plt>

0000000000401dac <illegalhandler>:
  401dac:	48 83 ec 08          	sub    $0x8,%rsp
  401db0:	83 3d 51 27 20 00 00 	cmpl   $0x0,0x202751(%rip)        # 604508 <is_checker>
  401db7:	74 16                	je     401dcf <illegalhandler+0x23>
  401db9:	48 8d 3d 88 13 00 00 	lea    0x1388(%rip),%rdi        # 403148 <_IO_stdin_used+0x478>
  401dc0:	e8 6b ee ff ff       	callq  400c30 <puts@plt>
  401dc5:	b8 00 00 00 00       	mov    $0x0,%eax
  401dca:	e8 05 fc ff ff       	callq  4019d4 <check_fail>
  401dcf:	48 8d 3d f2 14 00 00 	lea    0x14f2(%rip),%rdi        # 4032c8 <_IO_stdin_used+0x5f8>
  401dd6:	e8 55 ee ff ff       	callq  400c30 <puts@plt>
  401ddb:	48 8d 3d 3d 13 00 00 	lea    0x133d(%rip),%rdi        # 40311f <_IO_stdin_used+0x44f>
  401de2:	e8 49 ee ff ff       	callq  400c30 <puts@plt>
  401de7:	be 00 00 00 00       	mov    $0x0,%esi
  401dec:	bf 00 00 00 00       	mov    $0x0,%edi
  401df1:	e8 63 fc ff ff       	callq  401a59 <notify_server>
  401df6:	bf 01 00 00 00       	mov    $0x1,%edi
  401dfb:	e8 b0 ef ff ff       	callq  400db0 <exit@plt>

0000000000401e00 <sigalrmhandler>:
  401e00:	48 83 ec 08          	sub    $0x8,%rsp
  401e04:	83 3d fd 26 20 00 00 	cmpl   $0x0,0x2026fd(%rip)        # 604508 <is_checker>
  401e0b:	74 16                	je     401e23 <sigalrmhandler+0x23>
  401e0d:	48 8d 3d 48 13 00 00 	lea    0x1348(%rip),%rdi        # 40315c <_IO_stdin_used+0x48c>
  401e14:	e8 17 ee ff ff       	callq  400c30 <puts@plt>
  401e19:	b8 00 00 00 00       	mov    $0x0,%eax
  401e1e:	e8 b1 fb ff ff       	callq  4019d4 <check_fail>
  401e23:	be 05 00 00 00       	mov    $0x5,%esi
  401e28:	48 8d 3d c9 14 00 00 	lea    0x14c9(%rip),%rdi        # 4032f8 <_IO_stdin_used+0x628>
  401e2f:	b8 00 00 00 00       	mov    $0x0,%eax
  401e34:	e8 27 ee ff ff       	callq  400c60 <printf@plt>
  401e39:	be 00 00 00 00       	mov    $0x0,%esi
  401e3e:	bf 00 00 00 00       	mov    $0x0,%edi
  401e43:	e8 11 fc ff ff       	callq  401a59 <notify_server>
  401e48:	bf 01 00 00 00       	mov    $0x1,%edi
  401e4d:	e8 5e ef ff ff       	callq  400db0 <exit@plt>

0000000000401e52 <launch>:
  401e52:	55                   	push   %rbp
  401e53:	48 89 e5             	mov    %rsp,%rbp
  401e56:	48 89 fa             	mov    %rdi,%rdx
  401e59:	48 8d 47 1e          	lea    0x1e(%rdi),%rax
  401e5d:	48 83 e0 f0          	and    $0xfffffffffffffff0,%rax
  401e61:	48 29 c4             	sub    %rax,%rsp
  401e64:	48 8d 7c 24 0f       	lea    0xf(%rsp),%rdi
  401e69:	48 83 e7 f0          	and    $0xfffffffffffffff0,%rdi
  401e6d:	be f4 00 00 00       	mov    $0xf4,%esi
  401e72:	e8 f9 ed ff ff       	callq  400c70 <memset@plt>
  401e77:	48 8b 05 22 26 20 00 	mov    0x202622(%rip),%rax        # 6044a0 <stdin@@GLIBC_2.2.5>
  401e7e:	48 39 05 6b 26 20 00 	cmp    %rax,0x20266b(%rip)        # 6044f0 <infile>
  401e85:	74 2b                	je     401eb2 <launch+0x60>
  401e87:	c7 05 6b 26 20 00 00 	movl   $0x0,0x20266b(%rip)        # 6044fc <vlevel>
  401e8e:	00 00 00 
  401e91:	b8 00 00 00 00       	mov    $0x0,%eax
  401e96:	e8 a3 fa ff ff       	callq  40193e <test>
  401e9b:	83 3d 66 26 20 00 00 	cmpl   $0x0,0x202666(%rip)        # 604508 <is_checker>
  401ea2:	75 21                	jne    401ec5 <launch+0x73>
  401ea4:	48 8d 3d d1 12 00 00 	lea    0x12d1(%rip),%rdi        # 40317c <_IO_stdin_used+0x4ac>
  401eab:	e8 80 ed ff ff       	callq  400c30 <puts@plt>
  401eb0:	c9                   	leaveq 
  401eb1:	c3                   	retq   
  401eb2:	48 8d 3d ab 12 00 00 	lea    0x12ab(%rip),%rdi        # 403164 <_IO_stdin_used+0x494>
  401eb9:	b8 00 00 00 00       	mov    $0x0,%eax
  401ebe:	e8 9d ed ff ff       	callq  400c60 <printf@plt>
  401ec3:	eb c2                	jmp    401e87 <launch+0x35>
  401ec5:	48 8d 3d a5 12 00 00 	lea    0x12a5(%rip),%rdi        # 403171 <_IO_stdin_used+0x4a1>
  401ecc:	e8 5f ed ff ff       	callq  400c30 <puts@plt>
  401ed1:	b8 00 00 00 00       	mov    $0x0,%eax
  401ed6:	e8 f9 fa ff ff       	callq  4019d4 <check_fail>

0000000000401edb <stable_launch>:
  401edb:	53                   	push   %rbx
  401edc:	48 89 3d 05 26 20 00 	mov    %rdi,0x202605(%rip)        # 6044e8 <global_offset>
  401ee3:	41 b9 00 00 00 00    	mov    $0x0,%r9d
  401ee9:	41 b8 00 00 00 00    	mov    $0x0,%r8d
  401eef:	b9 32 01 00 00       	mov    $0x132,%ecx
  401ef4:	ba 07 00 00 00       	mov    $0x7,%edx
  401ef9:	be 00 00 10 00       	mov    $0x100000,%esi
  401efe:	bf 00 60 58 55       	mov    $0x55586000,%edi
  401f03:	e8 48 ed ff ff       	callq  400c50 <mmap@plt>
  401f08:	48 89 c3             	mov    %rax,%rbx
  401f0b:	48 3d 00 60 58 55    	cmp    $0x55586000,%rax
  401f11:	75 43                	jne    401f56 <stable_launch+0x7b>
  401f13:	48 8d 90 f8 ff 0f 00 	lea    0xffff8(%rax),%rdx
  401f1a:	48 89 15 0f 32 20 00 	mov    %rdx,0x20320f(%rip)        # 605130 <stack_top>
  401f21:	48 89 e0             	mov    %rsp,%rax
  401f24:	48 89 d4             	mov    %rdx,%rsp
  401f27:	48 89 c2             	mov    %rax,%rdx
  401f2a:	48 89 15 af 25 20 00 	mov    %rdx,0x2025af(%rip)        # 6044e0 <global_save_stack>
  401f31:	48 8b 3d b0 25 20 00 	mov    0x2025b0(%rip),%rdi        # 6044e8 <global_offset>
  401f38:	e8 15 ff ff ff       	callq  401e52 <launch>
  401f3d:	48 8b 05 9c 25 20 00 	mov    0x20259c(%rip),%rax        # 6044e0 <global_save_stack>
  401f44:	48 89 c4             	mov    %rax,%rsp
  401f47:	be 00 00 10 00       	mov    $0x100000,%esi
  401f4c:	48 89 df             	mov    %rbx,%rdi
  401f4f:	e8 ec ed ff ff       	callq  400d40 <munmap@plt>
  401f54:	5b                   	pop    %rbx
  401f55:	c3                   	retq   
  401f56:	be 00 00 10 00       	mov    $0x100000,%esi
  401f5b:	48 89 c7             	mov    %rax,%rdi
  401f5e:	e8 dd ed ff ff       	callq  400d40 <munmap@plt>
  401f63:	ba 00 60 58 55       	mov    $0x55586000,%edx
  401f68:	48 8d 35 c1 13 00 00 	lea    0x13c1(%rip),%rsi        # 403330 <_IO_stdin_used+0x660>
  401f6f:	48 8b 3d 4a 25 20 00 	mov    0x20254a(%rip),%rdi        # 6044c0 <stderr@@GLIBC_2.2.5>
  401f76:	b8 00 00 00 00       	mov    $0x0,%eax
  401f7b:	e8 50 ed ff ff       	callq  400cd0 <fprintf@plt>
  401f80:	bf 01 00 00 00       	mov    $0x1,%edi
  401f85:	e8 26 ee ff ff       	callq  400db0 <exit@plt>

0000000000401f8a <rio_readinitb>:
  401f8a:	89 37                	mov    %esi,(%rdi)
  401f8c:	c7 47 04 00 00 00 00 	movl   $0x0,0x4(%rdi)
  401f93:	48 8d 47 10          	lea    0x10(%rdi),%rax
  401f97:	48 89 47 08          	mov    %rax,0x8(%rdi)
  401f9b:	c3                   	retq   

0000000000401f9c <sigalrm_handler>:
  401f9c:	48 83 ec 08          	sub    $0x8,%rsp
  401fa0:	ba 00 00 00 00       	mov    $0x0,%edx
  401fa5:	48 8d 35 c4 13 00 00 	lea    0x13c4(%rip),%rsi        # 403370 <trans_char+0x10>
  401fac:	48 8b 3d 0d 25 20 00 	mov    0x20250d(%rip),%rdi        # 6044c0 <stderr@@GLIBC_2.2.5>
  401fb3:	b8 00 00 00 00       	mov    $0x0,%eax
  401fb8:	e8 13 ed ff ff       	callq  400cd0 <fprintf@plt>
  401fbd:	bf 01 00 00 00       	mov    $0x1,%edi
  401fc2:	e8 e9 ed ff ff       	callq  400db0 <exit@plt>

0000000000401fc7 <urlencode>:
  401fc7:	41 54                	push   %r12
  401fc9:	55                   	push   %rbp
  401fca:	53                   	push   %rbx
  401fcb:	48 83 ec 10          	sub    $0x10,%rsp
  401fcf:	48 89 fb             	mov    %rdi,%rbx
  401fd2:	48 89 f5             	mov    %rsi,%rbp
  401fd5:	b8 00 00 00 00       	mov    $0x0,%eax
  401fda:	48 c7 c1 ff ff ff ff 	mov    $0xffffffffffffffff,%rcx
  401fe1:	f2 ae                	repnz scas %es:(%rdi),%al
  401fe3:	48 f7 d1             	not    %rcx
  401fe6:	8d 41 ff             	lea    -0x1(%rcx),%eax
  401fe9:	eb 0e                	jmp    401ff9 <urlencode+0x32>
  401feb:	88 55 00             	mov    %dl,0x0(%rbp)
  401fee:	48 8d 6d 01          	lea    0x1(%rbp),%rbp
  401ff2:	48 83 c3 01          	add    $0x1,%rbx
  401ff6:	44 89 e0             	mov    %r12d,%eax
  401ff9:	44 8d 60 ff          	lea    -0x1(%rax),%r12d
  401ffd:	85 c0                	test   %eax,%eax
  401fff:	0f 84 95 00 00 00    	je     40209a <urlencode+0xd3>
  402005:	0f b6 13             	movzbl (%rbx),%edx
  402008:	80 fa 2a             	cmp    $0x2a,%dl
  40200b:	0f 94 c1             	sete   %cl
  40200e:	80 fa 2d             	cmp    $0x2d,%dl
  402011:	0f 94 c0             	sete   %al
  402014:	08 c1                	or     %al,%cl
  402016:	75 d3                	jne    401feb <urlencode+0x24>
  402018:	80 fa 2e             	cmp    $0x2e,%dl
  40201b:	74 ce                	je     401feb <urlencode+0x24>
  40201d:	80 fa 5f             	cmp    $0x5f,%dl
  402020:	74 c9                	je     401feb <urlencode+0x24>
  402022:	8d 42 d0             	lea    -0x30(%rdx),%eax
  402025:	3c 09                	cmp    $0x9,%al
  402027:	76 c2                	jbe    401feb <urlencode+0x24>
  402029:	8d 42 bf             	lea    -0x41(%rdx),%eax
  40202c:	3c 19                	cmp    $0x19,%al
  40202e:	76 bb                	jbe    401feb <urlencode+0x24>
  402030:	8d 42 9f             	lea    -0x61(%rdx),%eax
  402033:	3c 19                	cmp    $0x19,%al
  402035:	76 b4                	jbe    401feb <urlencode+0x24>
  402037:	80 fa 20             	cmp    $0x20,%dl
  40203a:	74 4c                	je     402088 <urlencode+0xc1>
  40203c:	8d 42 e0             	lea    -0x20(%rdx),%eax
  40203f:	3c 5f                	cmp    $0x5f,%al
  402041:	0f 96 c1             	setbe  %cl
  402044:	80 fa 09             	cmp    $0x9,%dl
  402047:	0f 94 c0             	sete   %al
  40204a:	08 c1                	or     %al,%cl
  40204c:	74 47                	je     402095 <urlencode+0xce>
  40204e:	0f b6 d2             	movzbl %dl,%edx
  402051:	48 8d 7c 24 08       	lea    0x8(%rsp),%rdi
  402056:	48 8d 35 ab 13 00 00 	lea    0x13ab(%rip),%rsi        # 403408 <trans_char+0xa8>
  40205d:	b8 00 00 00 00       	mov    $0x0,%eax
  402062:	e8 39 ed ff ff       	callq  400da0 <sprintf@plt>
  402067:	0f b6 44 24 08       	movzbl 0x8(%rsp),%eax
  40206c:	88 45 00             	mov    %al,0x0(%rbp)
  40206f:	0f b6 44 24 09       	movzbl 0x9(%rsp),%eax
  402074:	88 45 01             	mov    %al,0x1(%rbp)
  402077:	0f b6 44 24 0a       	movzbl 0xa(%rsp),%eax
  40207c:	88 45 02             	mov    %al,0x2(%rbp)
  40207f:	48 8d 6d 03          	lea    0x3(%rbp),%rbp
  402083:	e9 6a ff ff ff       	jmpq   401ff2 <urlencode+0x2b>
  402088:	c6 45 00 2b          	movb   $0x2b,0x0(%rbp)
  40208c:	48 8d 6d 01          	lea    0x1(%rbp),%rbp
  402090:	e9 5d ff ff ff       	jmpq   401ff2 <urlencode+0x2b>
  402095:	b8 ff ff ff ff       	mov    $0xffffffff,%eax
  40209a:	48 83 c4 10          	add    $0x10,%rsp
  40209e:	5b                   	pop    %rbx
  40209f:	5d                   	pop    %rbp
  4020a0:	41 5c                	pop    %r12
  4020a2:	c3                   	retq   

00000000004020a3 <rio_writen>:
  4020a3:	41 55                	push   %r13
  4020a5:	41 54                	push   %r12
  4020a7:	55                   	push   %rbp
  4020a8:	53                   	push   %rbx
  4020a9:	48 83 ec 08          	sub    $0x8,%rsp
  4020ad:	41 89 fc             	mov    %edi,%r12d
  4020b0:	49 89 d5             	mov    %rdx,%r13
  4020b3:	48 89 f5             	mov    %rsi,%rbp
  4020b6:	48 89 d3             	mov    %rdx,%rbx
  4020b9:	eb 06                	jmp    4020c1 <rio_writen+0x1e>
  4020bb:	48 29 c3             	sub    %rax,%rbx
  4020be:	48 01 c5             	add    %rax,%rbp
  4020c1:	48 85 db             	test   %rbx,%rbx
  4020c4:	74 24                	je     4020ea <rio_writen+0x47>
  4020c6:	48 89 da             	mov    %rbx,%rdx
  4020c9:	48 89 ee             	mov    %rbp,%rsi
  4020cc:	44 89 e7             	mov    %r12d,%edi
  4020cf:	e8 6c eb ff ff       	callq  400c40 <write@plt>
  4020d4:	48 85 c0             	test   %rax,%rax
  4020d7:	7f e2                	jg     4020bb <rio_writen+0x18>
  4020d9:	e8 12 eb ff ff       	callq  400bf0 <__errno_location@plt>
  4020de:	83 38 04             	cmpl   $0x4,(%rax)
  4020e1:	75 15                	jne    4020f8 <rio_writen+0x55>
  4020e3:	b8 00 00 00 00       	mov    $0x0,%eax
  4020e8:	eb d1                	jmp    4020bb <rio_writen+0x18>
  4020ea:	4c 89 e8             	mov    %r13,%rax
  4020ed:	48 83 c4 08          	add    $0x8,%rsp
  4020f1:	5b                   	pop    %rbx
  4020f2:	5d                   	pop    %rbp
  4020f3:	41 5c                	pop    %r12
  4020f5:	41 5d                	pop    %r13
  4020f7:	c3                   	retq   
  4020f8:	48 c7 c0 ff ff ff ff 	mov    $0xffffffffffffffff,%rax
  4020ff:	eb ec                	jmp    4020ed <rio_writen+0x4a>

0000000000402101 <rio_read>:
  402101:	41 55                	push   %r13
  402103:	41 54                	push   %r12
  402105:	55                   	push   %rbp
  402106:	53                   	push   %rbx
  402107:	48 83 ec 08          	sub    $0x8,%rsp
  40210b:	48 89 fb             	mov    %rdi,%rbx
  40210e:	49 89 f5             	mov    %rsi,%r13
  402111:	49 89 d4             	mov    %rdx,%r12
  402114:	eb 0a                	jmp    402120 <rio_read+0x1f>
  402116:	e8 d5 ea ff ff       	callq  400bf0 <__errno_location@plt>
  40211b:	83 38 04             	cmpl   $0x4,(%rax)
  40211e:	75 5c                	jne    40217c <rio_read+0x7b>
  402120:	8b 6b 04             	mov    0x4(%rbx),%ebp
  402123:	85 ed                	test   %ebp,%ebp
  402125:	7f 24                	jg     40214b <rio_read+0x4a>
  402127:	48 8d 6b 10          	lea    0x10(%rbx),%rbp
  40212b:	ba 00 20 00 00       	mov    $0x2000,%edx
  402130:	48 89 ee             	mov    %rbp,%rsi
  402133:	8b 3b                	mov    (%rbx),%edi
  402135:	e8 66 eb ff ff       	callq  400ca0 <read@plt>
  40213a:	89 43 04             	mov    %eax,0x4(%rbx)
  40213d:	85 c0                	test   %eax,%eax
  40213f:	78 d5                	js     402116 <rio_read+0x15>
  402141:	85 c0                	test   %eax,%eax
  402143:	74 40                	je     402185 <rio_read+0x84>
  402145:	48 89 6b 08          	mov    %rbp,0x8(%rbx)
  402149:	eb d5                	jmp    402120 <rio_read+0x1f>
  40214b:	89 e8                	mov    %ebp,%eax
  40214d:	49 39 c4             	cmp    %rax,%r12
  402150:	77 03                	ja     402155 <rio_read+0x54>
  402152:	44 89 e5             	mov    %r12d,%ebp
  402155:	4c 63 e5             	movslq %ebp,%r12
  402158:	48 8b 73 08          	mov    0x8(%rbx),%rsi
  40215c:	4c 89 e2             	mov    %r12,%rdx
  40215f:	4c 89 ef             	mov    %r13,%rdi
  402162:	e8 89 eb ff ff       	callq  400cf0 <memcpy@plt>
  402167:	4c 01 63 08          	add    %r12,0x8(%rbx)
  40216b:	29 6b 04             	sub    %ebp,0x4(%rbx)
  40216e:	4c 89 e0             	mov    %r12,%rax
  402171:	48 83 c4 08          	add    $0x8,%rsp
  402175:	5b                   	pop    %rbx
  402176:	5d                   	pop    %rbp
  402177:	41 5c                	pop    %r12
  402179:	41 5d                	pop    %r13
  40217b:	c3                   	retq   
  40217c:	48 c7 c0 ff ff ff ff 	mov    $0xffffffffffffffff,%rax
  402183:	eb ec                	jmp    402171 <rio_read+0x70>
  402185:	b8 00 00 00 00       	mov    $0x0,%eax
  40218a:	eb e5                	jmp    402171 <rio_read+0x70>

000000000040218c <rio_readlineb>:
  40218c:	41 55                	push   %r13
  40218e:	41 54                	push   %r12
  402190:	55                   	push   %rbp
  402191:	53                   	push   %rbx
  402192:	48 83 ec 18          	sub    $0x18,%rsp
  402196:	49 89 fd             	mov    %rdi,%r13
  402199:	49 89 d4             	mov    %rdx,%r12
  40219c:	48 89 f5             	mov    %rsi,%rbp
  40219f:	bb 01 00 00 00       	mov    $0x1,%ebx
  4021a4:	4c 39 e3             	cmp    %r12,%rbx
  4021a7:	73 47                	jae    4021f0 <rio_readlineb+0x64>
  4021a9:	48 8d 74 24 0f       	lea    0xf(%rsp),%rsi
  4021ae:	ba 01 00 00 00       	mov    $0x1,%edx
  4021b3:	4c 89 ef             	mov    %r13,%rdi
  4021b6:	e8 46 ff ff ff       	callq  402101 <rio_read>
  4021bb:	83 f8 01             	cmp    $0x1,%eax
  4021be:	75 1c                	jne    4021dc <rio_readlineb+0x50>
  4021c0:	48 8d 45 01          	lea    0x1(%rbp),%rax
  4021c4:	0f b6 54 24 0f       	movzbl 0xf(%rsp),%edx
  4021c9:	88 55 00             	mov    %dl,0x0(%rbp)
  4021cc:	80 7c 24 0f 0a       	cmpb   $0xa,0xf(%rsp)
  4021d1:	74 1a                	je     4021ed <rio_readlineb+0x61>
  4021d3:	48 83 c3 01          	add    $0x1,%rbx
  4021d7:	48 89 c5             	mov    %rax,%rbp
  4021da:	eb c8                	jmp    4021a4 <rio_readlineb+0x18>
  4021dc:	85 c0                	test   %eax,%eax
  4021de:	75 22                	jne    402202 <rio_readlineb+0x76>
  4021e0:	48 83 fb 01          	cmp    $0x1,%rbx
  4021e4:	75 0a                	jne    4021f0 <rio_readlineb+0x64>
  4021e6:	b8 00 00 00 00       	mov    $0x0,%eax
  4021eb:	eb 0a                	jmp    4021f7 <rio_readlineb+0x6b>
  4021ed:	48 89 c5             	mov    %rax,%rbp
  4021f0:	c6 45 00 00          	movb   $0x0,0x0(%rbp)
  4021f4:	48 89 d8             	mov    %rbx,%rax
  4021f7:	48 83 c4 18          	add    $0x18,%rsp
  4021fb:	5b                   	pop    %rbx
  4021fc:	5d                   	pop    %rbp
  4021fd:	41 5c                	pop    %r12
  4021ff:	41 5d                	pop    %r13
  402201:	c3                   	retq   
  402202:	48 c7 c0 ff ff ff ff 	mov    $0xffffffffffffffff,%rax
  402209:	eb ec                	jmp    4021f7 <rio_readlineb+0x6b>

000000000040220b <submitr>:
  40220b:	41 57                	push   %r15
  40220d:	41 56                	push   %r14
  40220f:	41 55                	push   %r13
  402211:	41 54                	push   %r12
  402213:	55                   	push   %rbp
  402214:	53                   	push   %rbx
  402215:	48 81 ec 58 a0 00 00 	sub    $0xa058,%rsp
  40221c:	49 89 fd             	mov    %rdi,%r13
  40221f:	89 74 24 14          	mov    %esi,0x14(%rsp)
  402223:	49 89 d7             	mov    %rdx,%r15
  402226:	48 89 4c 24 08       	mov    %rcx,0x8(%rsp)
  40222b:	4c 89 44 24 18       	mov    %r8,0x18(%rsp)
  402230:	4d 89 ce             	mov    %r9,%r14
  402233:	48 8b 9c 24 90 a0 00 	mov    0xa090(%rsp),%rbx
  40223a:	00 
  40223b:	c7 84 24 2c 20 00 00 	movl   $0x0,0x202c(%rsp)
  402242:	00 00 00 00 
  402246:	ba 00 00 00 00       	mov    $0x0,%edx
  40224b:	be 01 00 00 00       	mov    $0x1,%esi
  402250:	bf 02 00 00 00       	mov    $0x2,%edi
  402255:	e8 76 eb ff ff       	callq  400dd0 <socket@plt>
  40225a:	85 c0                	test   %eax,%eax
  40225c:	0f 88 ca 01 00 00    	js     40242c <submitr+0x221>
  402262:	89 c5                	mov    %eax,%ebp
  402264:	4c 89 ef             	mov    %r13,%rdi
  402267:	e8 54 ea ff ff       	callq  400cc0 <gethostbyname@plt>
  40226c:	48 85 c0             	test   %rax,%rax
  40226f:	0f 84 05 02 00 00    	je     40247a <submitr+0x26f>
  402275:	4c 8d a4 24 40 a0 00 	lea    0xa040(%rsp),%r12
  40227c:	00 
  40227d:	48 c7 84 24 40 a0 00 	movq   $0x0,0xa040(%rsp)
  402284:	00 00 00 00 00 
  402289:	48 c7 84 24 48 a0 00 	movq   $0x0,0xa048(%rsp)
  402290:	00 00 00 00 00 
  402295:	66 c7 84 24 40 a0 00 	movw   $0x2,0xa040(%rsp)
  40229c:	00 02 00 
  40229f:	48 8b 48 18          	mov    0x18(%rax),%rcx
  4022a3:	48 63 50 14          	movslq 0x14(%rax),%rdx
  4022a7:	48 8d b4 24 44 a0 00 	lea    0xa044(%rsp),%rsi
  4022ae:	00 
  4022af:	48 8b 39             	mov    (%rcx),%rdi
  4022b2:	e8 99 ea ff ff       	callq  400d50 <bcopy@plt>
  4022b7:	0f b7 44 24 14       	movzwl 0x14(%rsp),%eax
  4022bc:	66 c1 c8 08          	ror    $0x8,%ax
  4022c0:	66 89 84 24 42 a0 00 	mov    %ax,0xa042(%rsp)
  4022c7:	00 
  4022c8:	ba 10 00 00 00       	mov    $0x10,%edx
  4022cd:	4c 89 e6             	mov    %r12,%rsi
  4022d0:	89 ef                	mov    %ebp,%edi
  4022d2:	e8 e9 ea ff ff       	callq  400dc0 <connect@plt>
  4022d7:	85 c0                	test   %eax,%eax
  4022d9:	0f 88 02 02 00 00    	js     4024e1 <submitr+0x2d6>
  4022df:	48 c7 c6 ff ff ff ff 	mov    $0xffffffffffffffff,%rsi
  4022e6:	b8 00 00 00 00       	mov    $0x0,%eax
  4022eb:	48 89 f1             	mov    %rsi,%rcx
  4022ee:	4c 89 f7             	mov    %r14,%rdi
  4022f1:	f2 ae                	repnz scas %es:(%rdi),%al
  4022f3:	48 f7 d1             	not    %rcx
  4022f6:	48 89 ca             	mov    %rcx,%rdx
  4022f9:	48 89 f1             	mov    %rsi,%rcx
  4022fc:	4c 89 ff             	mov    %r15,%rdi
  4022ff:	f2 ae                	repnz scas %es:(%rdi),%al
  402301:	48 f7 d1             	not    %rcx
  402304:	49 89 c8             	mov    %rcx,%r8
  402307:	48 89 f1             	mov    %rsi,%rcx
  40230a:	48 8b 7c 24 08       	mov    0x8(%rsp),%rdi
  40230f:	f2 ae                	repnz scas %es:(%rdi),%al
  402311:	48 f7 d1             	not    %rcx
  402314:	4d 8d 44 08 fe       	lea    -0x2(%r8,%rcx,1),%r8
  402319:	48 89 f1             	mov    %rsi,%rcx
  40231c:	48 8b 7c 24 18       	mov    0x18(%rsp),%rdi
  402321:	f2 ae                	repnz scas %es:(%rdi),%al
  402323:	48 89 c8             	mov    %rcx,%rax
  402326:	48 f7 d0             	not    %rax
  402329:	49 8d 4c 00 ff       	lea    -0x1(%r8,%rax,1),%rcx
  40232e:	48 8d 44 52 fd       	lea    -0x3(%rdx,%rdx,2),%rax
  402333:	48 8d 84 01 80 00 00 	lea    0x80(%rcx,%rax,1),%rax
  40233a:	00 
  40233b:	48 3d 00 20 00 00    	cmp    $0x2000,%rax
  402341:	0f 87 f3 01 00 00    	ja     40253a <submitr+0x32f>
  402347:	48 8d b4 24 30 40 00 	lea    0x4030(%rsp),%rsi
  40234e:	00 
  40234f:	b9 00 04 00 00       	mov    $0x400,%ecx
  402354:	b8 00 00 00 00       	mov    $0x0,%eax
  402359:	48 89 f7             	mov    %rsi,%rdi
  40235c:	f3 48 ab             	rep stos %rax,%es:(%rdi)
  40235f:	4c 89 f7             	mov    %r14,%rdi
  402362:	e8 60 fc ff ff       	callq  401fc7 <urlencode>
  402367:	85 c0                	test   %eax,%eax
  402369:	0f 88 3d 02 00 00    	js     4025ac <submitr+0x3a1>
  40236f:	4c 8d a4 24 30 60 00 	lea    0x6030(%rsp),%r12
  402376:	00 
  402377:	4d 89 e9             	mov    %r13,%r9
  40237a:	4c 8d 84 24 30 40 00 	lea    0x4030(%rsp),%r8
  402381:	00 
  402382:	4c 89 f9             	mov    %r15,%rcx
  402385:	48 8b 54 24 08       	mov    0x8(%rsp),%rdx
  40238a:	48 8d 35 07 10 00 00 	lea    0x1007(%rip),%rsi        # 403398 <trans_char+0x38>
  402391:	4c 89 e7             	mov    %r12,%rdi
  402394:	b8 00 00 00 00       	mov    $0x0,%eax
  402399:	e8 02 ea ff ff       	callq  400da0 <sprintf@plt>
  40239e:	b8 00 00 00 00       	mov    $0x0,%eax
  4023a3:	48 c7 c1 ff ff ff ff 	mov    $0xffffffffffffffff,%rcx
  4023aa:	4c 89 e7             	mov    %r12,%rdi
  4023ad:	f2 ae                	repnz scas %es:(%rdi),%al
  4023af:	48 f7 d1             	not    %rcx
  4023b2:	48 8d 51 ff          	lea    -0x1(%rcx),%rdx
  4023b6:	4c 89 e6             	mov    %r12,%rsi
  4023b9:	89 ef                	mov    %ebp,%edi
  4023bb:	e8 e3 fc ff ff       	callq  4020a3 <rio_writen>
  4023c0:	48 85 c0             	test   %rax,%rax
  4023c3:	0f 88 6d 02 00 00    	js     402636 <submitr+0x42b>
  4023c9:	4c 8d a4 24 30 80 00 	lea    0x8030(%rsp),%r12
  4023d0:	00 
  4023d1:	89 ee                	mov    %ebp,%esi
  4023d3:	4c 89 e7             	mov    %r12,%rdi
  4023d6:	e8 af fb ff ff       	callq  401f8a <rio_readinitb>
  4023db:	48 8d b4 24 30 60 00 	lea    0x6030(%rsp),%rsi
  4023e2:	00 
  4023e3:	ba 00 20 00 00       	mov    $0x2000,%edx
  4023e8:	4c 89 e7             	mov    %r12,%rdi
  4023eb:	e8 9c fd ff ff       	callq  40218c <rio_readlineb>
  4023f0:	48 85 c0             	test   %rax,%rax
  4023f3:	0f 8e ab 02 00 00    	jle    4026a4 <submitr+0x499>
  4023f9:	48 8d 8c 24 2c 20 00 	lea    0x202c(%rsp),%rcx
  402400:	00 
  402401:	48 8d 94 24 30 20 00 	lea    0x2030(%rsp),%rdx
  402408:	00 
  402409:	48 8d bc 24 30 60 00 	lea    0x6030(%rsp),%rdi
  402410:	00 
  402411:	4c 8d 44 24 20       	lea    0x20(%rsp),%r8
  402416:	48 8d 35 f2 0f 00 00 	lea    0xff2(%rip),%rsi        # 40340f <trans_char+0xaf>
  40241d:	b8 00 00 00 00       	mov    $0x0,%eax
  402422:	e8 09 e9 ff ff       	callq  400d30 <__isoc99_sscanf@plt>
  402427:	e9 9f 03 00 00       	jmpq   4027cb <submitr+0x5c0>
  40242c:	48 b8 45 72 72 6f 72 	movabs $0x43203a726f727245,%rax
  402433:	3a 20 43 
  402436:	48 89 03             	mov    %rax,(%rbx)
  402439:	48 b8 6c 69 65 6e 74 	movabs $0x6e7520746e65696c,%rax
  402440:	20 75 6e 
  402443:	48 89 43 08          	mov    %rax,0x8(%rbx)
  402447:	48 b8 61 62 6c 65 20 	movabs $0x206f7420656c6261,%rax
  40244e:	74 6f 20 
  402451:	48 89 43 10          	mov    %rax,0x10(%rbx)
  402455:	48 b8 63 72 65 61 74 	movabs $0x7320657461657263,%rax
  40245c:	65 20 73 
  40245f:	48 89 43 18          	mov    %rax,0x18(%rbx)
  402463:	c7 43 20 6f 63 6b 65 	movl   $0x656b636f,0x20(%rbx)
  40246a:	66 c7 43 24 74 00    	movw   $0x74,0x24(%rbx)
  402470:	b8 ff ff ff ff       	mov    $0xffffffff,%eax
  402475:	e9 18 03 00 00       	jmpq   402792 <submitr+0x587>
  40247a:	48 b8 45 72 72 6f 72 	movabs $0x44203a726f727245,%rax
  402481:	3a 20 44 
  402484:	48 89 03             	mov    %rax,(%rbx)
  402487:	48 b8 4e 53 20 69 73 	movabs $0x6e7520736920534e,%rax
  40248e:	20 75 6e 
  402491:	48 89 43 08          	mov    %rax,0x8(%rbx)
  402495:	48 b8 61 62 6c 65 20 	movabs $0x206f7420656c6261,%rax
  40249c:	74 6f 20 
  40249f:	48 89 43 10          	mov    %rax,0x10(%rbx)
  4024a3:	48 b8 72 65 73 6f 6c 	movabs $0x2065766c6f736572,%rax
  4024aa:	76 65 20 
  4024ad:	48 89 43 18          	mov    %rax,0x18(%rbx)
  4024b1:	48 b8 73 65 72 76 65 	movabs $0x6120726576726573,%rax
  4024b8:	72 20 61 
  4024bb:	48 89 43 20          	mov    %rax,0x20(%rbx)
  4024bf:	c7 43 28 64 64 72 65 	movl   $0x65726464,0x28(%rbx)
  4024c6:	66 c7 43 2c 73 73    	movw   $0x7373,0x2c(%rbx)
  4024cc:	c6 43 2e 00          	movb   $0x0,0x2e(%rbx)
  4024d0:	89 ef                	mov    %ebp,%edi
  4024d2:	e8 b9 e7 ff ff       	callq  400c90 <close@plt>
  4024d7:	b8 ff ff ff ff       	mov    $0xffffffff,%eax
  4024dc:	e9 b1 02 00 00       	jmpq   402792 <submitr+0x587>
  4024e1:	48 b8 45 72 72 6f 72 	movabs $0x55203a726f727245,%rax
  4024e8:	3a 20 55 
  4024eb:	48 89 03             	mov    %rax,(%rbx)
  4024ee:	48 b8 6e 61 62 6c 65 	movabs $0x6f7420656c62616e,%rax
  4024f5:	20 74 6f 
  4024f8:	48 89 43 08          	mov    %rax,0x8(%rbx)
  4024fc:	48 b8 20 63 6f 6e 6e 	movabs $0x7463656e6e6f6320,%rax
  402503:	65 63 74 
  402506:	48 89 43 10          	mov    %rax,0x10(%rbx)
  40250a:	48 b8 20 74 6f 20 74 	movabs $0x20656874206f7420,%rax
  402511:	68 65 20 
  402514:	48 89 43 18          	mov    %rax,0x18(%rbx)
  402518:	c7 43 20 73 65 72 76 	movl   $0x76726573,0x20(%rbx)
  40251f:	66 c7 43 24 65 72    	movw   $0x7265,0x24(%rbx)
  402525:	c6 43 26 00          	movb   $0x0,0x26(%rbx)
  402529:	89 ef                	mov    %ebp,%edi
  40252b:	e8 60 e7 ff ff       	callq  400c90 <close@plt>
  402530:	b8 ff ff ff ff       	mov    $0xffffffff,%eax
  402535:	e9 58 02 00 00       	jmpq   402792 <submitr+0x587>
  40253a:	48 b8 45 72 72 6f 72 	movabs $0x52203a726f727245,%rax
  402541:	3a 20 52 
  402544:	48 89 03             	mov    %rax,(%rbx)
  402547:	48 b8 65 73 75 6c 74 	movabs $0x747320746c757365,%rax
  40254e:	20 73 74 
  402551:	48 89 43 08          	mov    %rax,0x8(%rbx)
  402555:	48 b8 72 69 6e 67 20 	movabs $0x6f6f7420676e6972,%rax
  40255c:	74 6f 6f 
  40255f:	48 89 43 10          	mov    %rax,0x10(%rbx)
  402563:	48 b8 20 6c 61 72 67 	movabs $0x202e656772616c20,%rax
  40256a:	65 2e 20 
  40256d:	48 89 43 18          	mov    %rax,0x18(%rbx)
  402571:	48 b8 49 6e 63 72 65 	movabs $0x6573616572636e49,%rax
  402578:	61 73 65 
  40257b:	48 89 43 20          	mov    %rax,0x20(%rbx)
  40257f:	48 b8 20 53 55 42 4d 	movabs $0x5254494d42555320,%rax
  402586:	49 54 52 
  402589:	48 89 43 28          	mov    %rax,0x28(%rbx)
  40258d:	48 b8 5f 4d 41 58 42 	movabs $0x46554258414d5f,%rax
  402594:	55 46 00 
  402597:	48 89 43 30          	mov    %rax,0x30(%rbx)
  40259b:	89 ef                	mov    %ebp,%edi
  40259d:	e8 ee e6 ff ff       	callq  400c90 <close@plt>
  4025a2:	b8 ff ff ff ff       	mov    $0xffffffff,%eax
  4025a7:	e9 e6 01 00 00       	jmpq   402792 <submitr+0x587>
  4025ac:	48 b8 45 72 72 6f 72 	movabs $0x52203a726f727245,%rax
  4025b3:	3a 20 52 
  4025b6:	48 89 03             	mov    %rax,(%rbx)
  4025b9:	48 b8 65 73 75 6c 74 	movabs $0x747320746c757365,%rax
  4025c0:	20 73 74 
  4025c3:	48 89 43 08          	mov    %rax,0x8(%rbx)
  4025c7:	48 b8 72 69 6e 67 20 	movabs $0x6e6f6320676e6972,%rax
  4025ce:	63 6f 6e 
  4025d1:	48 89 43 10          	mov    %rax,0x10(%rbx)
  4025d5:	48 b8 74 61 69 6e 73 	movabs $0x6e6120736e696174,%rax
  4025dc:	20 61 6e 
  4025df:	48 89 43 18          	mov    %rax,0x18(%rbx)
  4025e3:	48 b8 20 69 6c 6c 65 	movabs $0x6c6167656c6c6920,%rax
  4025ea:	67 61 6c 
  4025ed:	48 89 43 20          	mov    %rax,0x20(%rbx)
  4025f1:	48 b8 20 6f 72 20 75 	movabs $0x72706e7520726f20,%rax
  4025f8:	6e 70 72 
  4025fb:	48 89 43 28          	mov    %rax,0x28(%rbx)
  4025ff:	48 b8 69 6e 74 61 62 	movabs $0x20656c6261746e69,%rax
  402606:	6c 65 20 
  402609:	48 89 43 30          	mov    %rax,0x30(%rbx)
  40260d:	48 b8 63 68 61 72 61 	movabs $0x6574636172616863,%rax
  402614:	63 74 65 
  402617:	48 89 43 38          	mov    %rax,0x38(%rbx)
  40261b:	66 c7 43 40 72 2e    	movw   $0x2e72,0x40(%rbx)
  402621:	c6 43 42 00          	movb   $0x0,0x42(%rbx)
  402625:	89 ef                	mov    %ebp,%edi
  402627:	e8 64 e6 ff ff       	callq  400c90 <close@plt>
  40262c:	b8 ff ff ff ff       	mov    $0xffffffff,%eax
  402631:	e9 5c 01 00 00       	jmpq   402792 <submitr+0x587>
  402636:	48 b8 45 72 72 6f 72 	movabs $0x43203a726f727245,%rax
  40263d:	3a 20 43 
  402640:	48 89 03             	mov    %rax,(%rbx)
  402643:	48 b8 6c 69 65 6e 74 	movabs $0x6e7520746e65696c,%rax
  40264a:	20 75 6e 
  40264d:	48 89 43 08          	mov    %rax,0x8(%rbx)
  402651:	48 b8 61 62 6c 65 20 	movabs $0x206f7420656c6261,%rax
  402658:	74 6f 20 
  40265b:	48 89 43 10          	mov    %rax,0x10(%rbx)
  40265f:	48 b8 77 72 69 74 65 	movabs $0x6f74206574697277,%rax
  402666:	20 74 6f 
  402669:	48 89 43 18          	mov    %rax,0x18(%rbx)
  40266d:	48 b8 20 74 68 65 20 	movabs $0x7365722065687420,%rax
  402674:	72 65 73 
  402677:	48 89 43 20          	mov    %rax,0x20(%rbx)
  40267b:	48 b8 75 6c 74 20 73 	movabs $0x7672657320746c75,%rax
  402682:	65 72 76 
  402685:	48 89 43 28          	mov    %rax,0x28(%rbx)
  402689:	66 c7 43 30 65 72    	movw   $0x7265,0x30(%rbx)
  40268f:	c6 43 32 00          	movb   $0x0,0x32(%rbx)
  402693:	89 ef                	mov    %ebp,%edi
  402695:	e8 f6 e5 ff ff       	callq  400c90 <close@plt>
  40269a:	b8 ff ff ff ff       	mov    $0xffffffff,%eax
  40269f:	e9 ee 00 00 00       	jmpq   402792 <submitr+0x587>
  4026a4:	48 b8 45 72 72 6f 72 	movabs $0x43203a726f727245,%rax
  4026ab:	3a 20 43 
  4026ae:	48 89 03             	mov    %rax,(%rbx)
  4026b1:	48 b8 6c 69 65 6e 74 	movabs $0x6e7520746e65696c,%rax
  4026b8:	20 75 6e 
  4026bb:	48 89 43 08          	mov    %rax,0x8(%rbx)
  4026bf:	48 b8 61 62 6c 65 20 	movabs $0x206f7420656c6261,%rax
  4026c6:	74 6f 20 
  4026c9:	48 89 43 10          	mov    %rax,0x10(%rbx)
  4026cd:	48 b8 72 65 61 64 20 	movabs $0x7269662064616572,%rax
  4026d4:	66 69 72 
  4026d7:	48 89 43 18          	mov    %rax,0x18(%rbx)
  4026db:	48 b8 73 74 20 68 65 	movabs $0x6564616568207473,%rax
  4026e2:	61 64 65 
  4026e5:	48 89 43 20          	mov    %rax,0x20(%rbx)
  4026e9:	48 b8 72 20 66 72 6f 	movabs $0x72206d6f72662072,%rax
  4026f0:	6d 20 72 
  4026f3:	48 89 43 28          	mov    %rax,0x28(%rbx)
  4026f7:	48 b8 65 73 75 6c 74 	movabs $0x657320746c757365,%rax
  4026fe:	20 73 65 
  402701:	48 89 43 30          	mov    %rax,0x30(%rbx)
  402705:	c7 43 38 72 76 65 72 	movl   $0x72657672,0x38(%rbx)
  40270c:	c6 43 3c 00          	movb   $0x0,0x3c(%rbx)
  402710:	89 ef                	mov    %ebp,%edi
  402712:	e8 79 e5 ff ff       	callq  400c90 <close@plt>
  402717:	b8 ff ff ff ff       	mov    $0xffffffff,%eax
  40271c:	eb 74                	jmp    402792 <submitr+0x587>
  40271e:	48 b8 45 72 72 6f 72 	movabs $0x43203a726f727245,%rax
  402725:	3a 20 43 
  402728:	48 89 03             	mov    %rax,(%rbx)
  40272b:	48 b8 6c 69 65 6e 74 	movabs $0x6e7520746e65696c,%rax
  402732:	20 75 6e 
  402735:	48 89 43 08          	mov    %rax,0x8(%rbx)
  402739:	48 b8 61 62 6c 65 20 	movabs $0x206f7420656c6261,%rax
  402740:	74 6f 20 
  402743:	48 89 43 10          	mov    %rax,0x10(%rbx)
  402747:	48 b8 72 65 61 64 20 	movabs $0x6165682064616572,%rax
  40274e:	68 65 61 
  402751:	48 89 43 18          	mov    %rax,0x18(%rbx)
  402755:	48 b8 64 65 72 73 20 	movabs $0x6f72662073726564,%rax
  40275c:	66 72 6f 
  40275f:	48 89 43 20          	mov    %rax,0x20(%rbx)
  402763:	48 b8 6d 20 74 68 65 	movabs $0x657220656874206d,%rax
  40276a:	20 72 65 
  40276d:	48 89 43 28          	mov    %rax,0x28(%rbx)
  402771:	48 b8 73 75 6c 74 20 	movabs $0x72657320746c7573,%rax
  402778:	73 65 72 
  40277b:	48 89 43 30          	mov    %rax,0x30(%rbx)
  40277f:	c7 43 38 76 65 72 00 	movl   $0x726576,0x38(%rbx)
  402786:	89 ef                	mov    %ebp,%edi
  402788:	e8 03 e5 ff ff       	callq  400c90 <close@plt>
  40278d:	b8 ff ff ff ff       	mov    $0xffffffff,%eax
  402792:	48 81 c4 58 a0 00 00 	add    $0xa058,%rsp
  402799:	5b                   	pop    %rbx
  40279a:	5d                   	pop    %rbp
  40279b:	41 5c                	pop    %r12
  40279d:	41 5d                	pop    %r13
  40279f:	41 5e                	pop    %r14
  4027a1:	41 5f                	pop    %r15
  4027a3:	c3                   	retq   
  4027a4:	85 c0                	test   %eax,%eax
  4027a6:	74 51                	je     4027f9 <submitr+0x5ee>
  4027a8:	48 8d b4 24 30 60 00 	lea    0x6030(%rsp),%rsi
  4027af:	00 
  4027b0:	48 8d bc 24 30 80 00 	lea    0x8030(%rsp),%rdi
  4027b7:	00 
  4027b8:	ba 00 20 00 00       	mov    $0x2000,%edx
  4027bd:	e8 ca f9 ff ff       	callq  40218c <rio_readlineb>
  4027c2:	48 85 c0             	test   %rax,%rax
  4027c5:	0f 8e 53 ff ff ff    	jle    40271e <submitr+0x513>
  4027cb:	0f b6 94 24 30 60 00 	movzbl 0x6030(%rsp),%edx
  4027d2:	00 
  4027d3:	b8 0d 00 00 00       	mov    $0xd,%eax
  4027d8:	29 d0                	sub    %edx,%eax
  4027da:	75 c8                	jne    4027a4 <submitr+0x599>
  4027dc:	0f b6 94 24 31 60 00 	movzbl 0x6031(%rsp),%edx
  4027e3:	00 
  4027e4:	b8 0a 00 00 00       	mov    $0xa,%eax
  4027e9:	29 d0                	sub    %edx,%eax
  4027eb:	75 b7                	jne    4027a4 <submitr+0x599>
  4027ed:	0f b6 84 24 32 60 00 	movzbl 0x6032(%rsp),%eax
  4027f4:	00 
  4027f5:	f7 d8                	neg    %eax
  4027f7:	eb ab                	jmp    4027a4 <submitr+0x599>
  4027f9:	48 8d b4 24 30 60 00 	lea    0x6030(%rsp),%rsi
  402800:	00 
  402801:	48 8d bc 24 30 80 00 	lea    0x8030(%rsp),%rdi
  402808:	00 
  402809:	ba 00 20 00 00       	mov    $0x2000,%edx
  40280e:	e8 79 f9 ff ff       	callq  40218c <rio_readlineb>
  402813:	48 85 c0             	test   %rax,%rax
  402816:	7e 67                	jle    40287f <submitr+0x674>
  402818:	8b 94 24 2c 20 00 00 	mov    0x202c(%rsp),%edx
  40281f:	81 fa c8 00 00 00    	cmp    $0xc8,%edx
  402825:	0f 85 d7 00 00 00    	jne    402902 <submitr+0x6f7>
  40282b:	48 8d b4 24 30 60 00 	lea    0x6030(%rsp),%rsi
  402832:	00 
  402833:	48 89 df             	mov    %rbx,%rdi
  402836:	e8 e5 e3 ff ff       	callq  400c20 <strcpy@plt>
  40283b:	89 ef                	mov    %ebp,%edi
  40283d:	e8 4e e4 ff ff       	callq  400c90 <close@plt>
  402842:	0f b6 03             	movzbl (%rbx),%eax
  402845:	ba 4f 00 00 00       	mov    $0x4f,%edx
  40284a:	29 c2                	sub    %eax,%edx
  40284c:	0f 85 da 00 00 00    	jne    40292c <submitr+0x721>
  402852:	0f b6 4b 01          	movzbl 0x1(%rbx),%ecx
  402856:	b8 4b 00 00 00       	mov    $0x4b,%eax
  40285b:	29 c8                	sub    %ecx,%eax
  40285d:	0f 85 cb 00 00 00    	jne    40292e <submitr+0x723>
  402863:	0f b6 4b 02          	movzbl 0x2(%rbx),%ecx
  402867:	b8 0a 00 00 00       	mov    $0xa,%eax
  40286c:	29 c8                	sub    %ecx,%eax
  40286e:	0f 85 ba 00 00 00    	jne    40292e <submitr+0x723>
  402874:	0f b6 43 03          	movzbl 0x3(%rbx),%eax
  402878:	f7 d8                	neg    %eax
  40287a:	e9 af 00 00 00       	jmpq   40292e <submitr+0x723>
  40287f:	48 b8 45 72 72 6f 72 	movabs $0x43203a726f727245,%rax
  402886:	3a 20 43 
  402889:	48 89 03             	mov    %rax,(%rbx)
  40288c:	48 b8 6c 69 65 6e 74 	movabs $0x6e7520746e65696c,%rax
  402893:	20 75 6e 
  402896:	48 89 43 08          	mov    %rax,0x8(%rbx)
  40289a:	48 b8 61 62 6c 65 20 	movabs $0x206f7420656c6261,%rax
  4028a1:	74 6f 20 
  4028a4:	48 89 43 10          	mov    %rax,0x10(%rbx)
  4028a8:	48 b8 72 65 61 64 20 	movabs $0x6174732064616572,%rax
  4028af:	73 74 61 
  4028b2:	48 89 43 18          	mov    %rax,0x18(%rbx)
  4028b6:	48 b8 74 75 73 20 6d 	movabs $0x7373656d20737574,%rax
  4028bd:	65 73 73 
  4028c0:	48 89 43 20          	mov    %rax,0x20(%rbx)
  4028c4:	48 b8 61 67 65 20 66 	movabs $0x6d6f726620656761,%rax
  4028cb:	72 6f 6d 
  4028ce:	48 89 43 28          	mov    %rax,0x28(%rbx)
  4028d2:	48 b8 20 72 65 73 75 	movabs $0x20746c7573657220,%rax
  4028d9:	6c 74 20 
  4028dc:	48 89 43 30          	mov    %rax,0x30(%rbx)
  4028e0:	c7 43 38 73 65 72 76 	movl   $0x76726573,0x38(%rbx)
  4028e7:	66 c7 43 3c 65 72    	movw   $0x7265,0x3c(%rbx)
  4028ed:	c6 43 3e 00          	movb   $0x0,0x3e(%rbx)
  4028f1:	89 ef                	mov    %ebp,%edi
  4028f3:	e8 98 e3 ff ff       	callq  400c90 <close@plt>
  4028f8:	b8 ff ff ff ff       	mov    $0xffffffff,%eax
  4028fd:	e9 90 fe ff ff       	jmpq   402792 <submitr+0x587>
  402902:	48 8d 4c 24 20       	lea    0x20(%rsp),%rcx
  402907:	48 8d 35 ca 0a 00 00 	lea    0xaca(%rip),%rsi        # 4033d8 <trans_char+0x78>
  40290e:	48 89 df             	mov    %rbx,%rdi
  402911:	b8 00 00 00 00       	mov    $0x0,%eax
  402916:	e8 85 e4 ff ff       	callq  400da0 <sprintf@plt>
  40291b:	89 ef                	mov    %ebp,%edi
  40291d:	e8 6e e3 ff ff       	callq  400c90 <close@plt>
  402922:	b8 ff ff ff ff       	mov    $0xffffffff,%eax
  402927:	e9 66 fe ff ff       	jmpq   402792 <submitr+0x587>
  40292c:	89 d0                	mov    %edx,%eax
  40292e:	f7 d8                	neg    %eax
  402930:	0f 84 5c fe ff ff    	je     402792 <submitr+0x587>
  402936:	b9 05 00 00 00       	mov    $0x5,%ecx
  40293b:	48 8d 3d de 0a 00 00 	lea    0xade(%rip),%rdi        # 403420 <trans_char+0xc0>
  402942:	48 89 de             	mov    %rbx,%rsi
  402945:	f3 a6                	repz cmpsb %es:(%rdi),%ds:(%rsi)
  402947:	0f 97 c0             	seta   %al
  40294a:	0f 92 c1             	setb   %cl
  40294d:	29 c8                	sub    %ecx,%eax
  40294f:	0f be c0             	movsbl %al,%eax
  402952:	85 c0                	test   %eax,%eax
  402954:	0f 84 38 fe ff ff    	je     402792 <submitr+0x587>
  40295a:	85 d2                	test   %edx,%edx
  40295c:	75 13                	jne    402971 <submitr+0x766>
  40295e:	0f b6 43 01          	movzbl 0x1(%rbx),%eax
  402962:	ba 4b 00 00 00       	mov    $0x4b,%edx
  402967:	29 c2                	sub    %eax,%edx
  402969:	75 06                	jne    402971 <submitr+0x766>
  40296b:	0f b6 53 02          	movzbl 0x2(%rbx),%edx
  40296f:	f7 da                	neg    %edx
  402971:	89 d0                	mov    %edx,%eax
  402973:	f7 d8                	neg    %eax
  402975:	0f 84 17 fe ff ff    	je     402792 <submitr+0x587>
  40297b:	b8 ff ff ff ff       	mov    $0xffffffff,%eax
  402980:	e9 0d fe ff ff       	jmpq   402792 <submitr+0x587>

0000000000402985 <init_timeout>:
  402985:	85 ff                	test   %edi,%edi
  402987:	74 20                	je     4029a9 <init_timeout+0x24>
  402989:	53                   	push   %rbx
  40298a:	89 fb                	mov    %edi,%ebx
  40298c:	85 ff                	test   %edi,%edi
  40298e:	78 1b                	js     4029ab <init_timeout+0x26>
  402990:	48 8d 35 05 f6 ff ff 	lea    -0x9fb(%rip),%rsi        # 401f9c <sigalrm_handler>
  402997:	bf 0e 00 00 00       	mov    $0xe,%edi
  40299c:	e8 0f e3 ff ff       	callq  400cb0 <signal@plt>
  4029a1:	89 df                	mov    %ebx,%edi
  4029a3:	e8 d8 e2 ff ff       	callq  400c80 <alarm@plt>
  4029a8:	5b                   	pop    %rbx
  4029a9:	f3 c3                	repz retq 
  4029ab:	bb 00 00 00 00       	mov    $0x0,%ebx
  4029b0:	eb de                	jmp    402990 <init_timeout+0xb>

00000000004029b2 <init_driver>:
  4029b2:	41 54                	push   %r12
  4029b4:	55                   	push   %rbp
  4029b5:	53                   	push   %rbx
  4029b6:	48 83 ec 10          	sub    $0x10,%rsp
  4029ba:	48 89 fd             	mov    %rdi,%rbp
  4029bd:	be 01 00 00 00       	mov    $0x1,%esi
  4029c2:	bf 0d 00 00 00       	mov    $0xd,%edi
  4029c7:	e8 e4 e2 ff ff       	callq  400cb0 <signal@plt>
  4029cc:	be 01 00 00 00       	mov    $0x1,%esi
  4029d1:	bf 1d 00 00 00       	mov    $0x1d,%edi
  4029d6:	e8 d5 e2 ff ff       	callq  400cb0 <signal@plt>
  4029db:	be 01 00 00 00       	mov    $0x1,%esi
  4029e0:	bf 1d 00 00 00       	mov    $0x1d,%edi
  4029e5:	e8 c6 e2 ff ff       	callq  400cb0 <signal@plt>
  4029ea:	ba 00 00 00 00       	mov    $0x0,%edx
  4029ef:	be 01 00 00 00       	mov    $0x1,%esi
  4029f4:	bf 02 00 00 00       	mov    $0x2,%edi
  4029f9:	e8 d2 e3 ff ff       	callq  400dd0 <socket@plt>
  4029fe:	85 c0                	test   %eax,%eax
  402a00:	0f 88 80 00 00 00    	js     402a86 <init_driver+0xd4>
  402a06:	89 c3                	mov    %eax,%ebx
  402a08:	48 8d 3d 4f 05 00 00 	lea    0x54f(%rip),%rdi        # 402f5e <_IO_stdin_used+0x28e>
  402a0f:	e8 ac e2 ff ff       	callq  400cc0 <gethostbyname@plt>
  402a14:	48 85 c0             	test   %rax,%rax
  402a17:	0f 84 b5 00 00 00    	je     402ad2 <init_driver+0x120>
  402a1d:	48 c7 04 24 00 00 00 	movq   $0x0,(%rsp)
  402a24:	00 
  402a25:	48 c7 44 24 08 00 00 	movq   $0x0,0x8(%rsp)
  402a2c:	00 00 
  402a2e:	66 c7 04 24 02 00    	movw   $0x2,(%rsp)
  402a34:	48 8b 48 18          	mov    0x18(%rax),%rcx
  402a38:	48 63 50 14          	movslq 0x14(%rax),%rdx
  402a3c:	48 8d 74 24 04       	lea    0x4(%rsp),%rsi
  402a41:	48 8b 39             	mov    (%rcx),%rdi
  402a44:	e8 07 e3 ff ff       	callq  400d50 <bcopy@plt>
  402a49:	66 c7 44 24 02 3c 9a 	movw   $0x9a3c,0x2(%rsp)
  402a50:	ba 10 00 00 00       	mov    $0x10,%edx
  402a55:	48 89 e6             	mov    %rsp,%rsi
  402a58:	89 df                	mov    %ebx,%edi
  402a5a:	e8 61 e3 ff ff       	callq  400dc0 <connect@plt>
  402a5f:	85 c0                	test   %eax,%eax
  402a61:	0f 88 d3 00 00 00    	js     402b3a <init_driver+0x188>
  402a67:	89 df                	mov    %ebx,%edi
  402a69:	e8 22 e2 ff ff       	callq  400c90 <close@plt>
  402a6e:	66 c7 45 00 4f 4b    	movw   $0x4b4f,0x0(%rbp)
  402a74:	c6 45 02 00          	movb   $0x0,0x2(%rbp)
  402a78:	b8 00 00 00 00       	mov    $0x0,%eax
  402a7d:	48 83 c4 10          	add    $0x10,%rsp
  402a81:	5b                   	pop    %rbx
  402a82:	5d                   	pop    %rbp
  402a83:	41 5c                	pop    %r12
  402a85:	c3                   	retq   
  402a86:	48 b8 45 72 72 6f 72 	movabs $0x43203a726f727245,%rax
  402a8d:	3a 20 43 
  402a90:	48 89 45 00          	mov    %rax,0x0(%rbp)
  402a94:	48 b8 6c 69 65 6e 74 	movabs $0x6e7520746e65696c,%rax
  402a9b:	20 75 6e 
  402a9e:	48 89 45 08          	mov    %rax,0x8(%rbp)
  402aa2:	48 b8 61 62 6c 65 20 	movabs $0x206f7420656c6261,%rax
  402aa9:	74 6f 20 
  402aac:	48 89 45 10          	mov    %rax,0x10(%rbp)
  402ab0:	48 b8 63 72 65 61 74 	movabs $0x7320657461657263,%rax
  402ab7:	65 20 73 
  402aba:	48 89 45 18          	mov    %rax,0x18(%rbp)
  402abe:	c7 45 20 6f 63 6b 65 	movl   $0x656b636f,0x20(%rbp)
  402ac5:	66 c7 45 24 74 00    	movw   $0x74,0x24(%rbp)
  402acb:	b8 ff ff ff ff       	mov    $0xffffffff,%eax
  402ad0:	eb ab                	jmp    402a7d <init_driver+0xcb>
  402ad2:	48 b8 45 72 72 6f 72 	movabs $0x44203a726f727245,%rax
  402ad9:	3a 20 44 
  402adc:	48 89 45 00          	mov    %rax,0x0(%rbp)
  402ae0:	48 b8 4e 53 20 69 73 	movabs $0x6e7520736920534e,%rax
  402ae7:	20 75 6e 
  402aea:	48 89 45 08          	mov    %rax,0x8(%rbp)
  402aee:	48 b8 61 62 6c 65 20 	movabs $0x206f7420656c6261,%rax
  402af5:	74 6f 20 
  402af8:	48 89 45 10          	mov    %rax,0x10(%rbp)
  402afc:	48 b8 72 65 73 6f 6c 	movabs $0x2065766c6f736572,%rax
  402b03:	76 65 20 
  402b06:	48 89 45 18          	mov    %rax,0x18(%rbp)
  402b0a:	48 b8 73 65 72 76 65 	movabs $0x6120726576726573,%rax
  402b11:	72 20 61 
  402b14:	48 89 45 20          	mov    %rax,0x20(%rbp)
  402b18:	c7 45 28 64 64 72 65 	movl   $0x65726464,0x28(%rbp)
  402b1f:	66 c7 45 2c 73 73    	movw   $0x7373,0x2c(%rbp)
  402b25:	c6 45 2e 00          	movb   $0x0,0x2e(%rbp)
  402b29:	89 df                	mov    %ebx,%edi
  402b2b:	e8 60 e1 ff ff       	callq  400c90 <close@plt>
  402b30:	b8 ff ff ff ff       	mov    $0xffffffff,%eax
  402b35:	e9 43 ff ff ff       	jmpq   402a7d <init_driver+0xcb>
  402b3a:	48 b8 45 72 72 6f 72 	movabs $0x55203a726f727245,%rax
  402b41:	3a 20 55 
  402b44:	48 89 45 00          	mov    %rax,0x0(%rbp)
  402b48:	48 b8 6e 61 62 6c 65 	movabs $0x6f7420656c62616e,%rax
  402b4f:	20 74 6f 
  402b52:	48 89 45 08          	mov    %rax,0x8(%rbp)
  402b56:	48 b8 20 63 6f 6e 6e 	movabs $0x7463656e6e6f6320,%rax
  402b5d:	65 63 74 
  402b60:	48 89 45 10          	mov    %rax,0x10(%rbp)
  402b64:	48 b8 20 74 6f 20 73 	movabs $0x76726573206f7420,%rax
  402b6b:	65 72 76 
  402b6e:	48 89 45 18          	mov    %rax,0x18(%rbp)
  402b72:	66 c7 45 20 65 72    	movw   $0x7265,0x20(%rbp)
  402b78:	c6 45 22 00          	movb   $0x0,0x22(%rbp)
  402b7c:	89 df                	mov    %ebx,%edi
  402b7e:	e8 0d e1 ff ff       	callq  400c90 <close@plt>
  402b83:	b8 ff ff ff ff       	mov    $0xffffffff,%eax
  402b88:	e9 f0 fe ff ff       	jmpq   402a7d <init_driver+0xcb>

0000000000402b8d <driver_post>:
  402b8d:	53                   	push   %rbx
  402b8e:	4c 89 cb             	mov    %r9,%rbx
  402b91:	45 85 c0             	test   %r8d,%r8d
  402b94:	75 18                	jne    402bae <driver_post+0x21>
  402b96:	48 85 ff             	test   %rdi,%rdi
  402b99:	74 05                	je     402ba0 <driver_post+0x13>
  402b9b:	80 3f 00             	cmpb   $0x0,(%rdi)
  402b9e:	75 32                	jne    402bd2 <driver_post+0x45>
  402ba0:	66 c7 03 4f 4b       	movw   $0x4b4f,(%rbx)
  402ba5:	c6 43 02 00          	movb   $0x0,0x2(%rbx)
  402ba9:	44 89 c0             	mov    %r8d,%eax
  402bac:	5b                   	pop    %rbx
  402bad:	c3                   	retq   
  402bae:	48 89 ce             	mov    %rcx,%rsi
  402bb1:	48 8d 3d 6d 08 00 00 	lea    0x86d(%rip),%rdi        # 403425 <trans_char+0xc5>
  402bb8:	b8 00 00 00 00       	mov    $0x0,%eax
  402bbd:	e8 9e e0 ff ff       	callq  400c60 <printf@plt>
  402bc2:	66 c7 03 4f 4b       	movw   $0x4b4f,(%rbx)
  402bc7:	c6 43 02 00          	movb   $0x0,0x2(%rbx)
  402bcb:	b8 00 00 00 00       	mov    $0x0,%eax
  402bd0:	eb da                	jmp    402bac <driver_post+0x1f>
  402bd2:	48 83 ec 08          	sub    $0x8,%rsp
  402bd6:	41 51                	push   %r9
  402bd8:	49 89 c9             	mov    %rcx,%r9
  402bdb:	49 89 d0             	mov    %rdx,%r8
  402bde:	48 89 f9             	mov    %rdi,%rcx
  402be1:	48 89 f2             	mov    %rsi,%rdx
  402be4:	be 9a 3c 00 00       	mov    $0x3c9a,%esi
  402be9:	48 8d 3d 6e 03 00 00 	lea    0x36e(%rip),%rdi        # 402f5e <_IO_stdin_used+0x28e>
  402bf0:	e8 16 f6 ff ff       	callq  40220b <submitr>
  402bf5:	48 83 c4 10          	add    $0x10,%rsp
  402bf9:	eb b1                	jmp    402bac <driver_post+0x1f>

0000000000402bfb <check>:
  402bfb:	89 f8                	mov    %edi,%eax
  402bfd:	c1 e8 1c             	shr    $0x1c,%eax
  402c00:	85 c0                	test   %eax,%eax
  402c02:	74 1d                	je     402c21 <check+0x26>
  402c04:	b9 00 00 00 00       	mov    $0x0,%ecx
  402c09:	83 f9 1f             	cmp    $0x1f,%ecx
  402c0c:	7f 0d                	jg     402c1b <check+0x20>
  402c0e:	89 f8                	mov    %edi,%eax
  402c10:	d3 e8                	shr    %cl,%eax
  402c12:	3c 0a                	cmp    $0xa,%al
  402c14:	74 11                	je     402c27 <check+0x2c>
  402c16:	83 c1 08             	add    $0x8,%ecx
  402c19:	eb ee                	jmp    402c09 <check+0xe>
  402c1b:	b8 01 00 00 00       	mov    $0x1,%eax
  402c20:	c3                   	retq   
  402c21:	b8 00 00 00 00       	mov    $0x0,%eax
  402c26:	c3                   	retq   
  402c27:	b8 00 00 00 00       	mov    $0x0,%eax
  402c2c:	c3                   	retq   

0000000000402c2d <gencookie>:
  402c2d:	53                   	push   %rbx
  402c2e:	83 c7 01             	add    $0x1,%edi
  402c31:	e8 ca df ff ff       	callq  400c00 <srandom@plt>
  402c36:	e8 d5 e0 ff ff       	callq  400d10 <random@plt>
  402c3b:	89 c3                	mov    %eax,%ebx
  402c3d:	89 c7                	mov    %eax,%edi
  402c3f:	e8 b7 ff ff ff       	callq  402bfb <check>
  402c44:	85 c0                	test   %eax,%eax
  402c46:	74 ee                	je     402c36 <gencookie+0x9>
  402c48:	89 d8                	mov    %ebx,%eax
  402c4a:	5b                   	pop    %rbx
  402c4b:	c3                   	retq   
  402c4c:	0f 1f 40 00          	nopl   0x0(%rax)

0000000000402c50 <__libc_csu_init>:
  402c50:	41 57                	push   %r15
  402c52:	41 56                	push   %r14
  402c54:	41 89 ff             	mov    %edi,%r15d
  402c57:	41 55                	push   %r13
  402c59:	41 54                	push   %r12
  402c5b:	4c 8d 25 a6 11 20 00 	lea    0x2011a6(%rip),%r12        # 603e08 <__frame_dummy_init_array_entry>
  402c62:	55                   	push   %rbp
  402c63:	48 8d 2d a6 11 20 00 	lea    0x2011a6(%rip),%rbp        # 603e10 <__init_array_end>
  402c6a:	53                   	push   %rbx
  402c6b:	49 89 f6             	mov    %rsi,%r14
  402c6e:	49 89 d5             	mov    %rdx,%r13
  402c71:	4c 29 e5             	sub    %r12,%rbp
  402c74:	48 83 ec 08          	sub    $0x8,%rsp
  402c78:	48 c1 fd 03          	sar    $0x3,%rbp
  402c7c:	e8 2f df ff ff       	callq  400bb0 <_init>
  402c81:	48 85 ed             	test   %rbp,%rbp
  402c84:	74 20                	je     402ca6 <__libc_csu_init+0x56>
  402c86:	31 db                	xor    %ebx,%ebx
  402c88:	0f 1f 84 00 00 00 00 	nopl   0x0(%rax,%rax,1)
  402c8f:	00 
  402c90:	4c 89 ea             	mov    %r13,%rdx
  402c93:	4c 89 f6             	mov    %r14,%rsi
  402c96:	44 89 ff             	mov    %r15d,%edi
  402c99:	41 ff 14 dc          	callq  *(%r12,%rbx,8)
  402c9d:	48 83 c3 01          	add    $0x1,%rbx
  402ca1:	48 39 dd             	cmp    %rbx,%rbp
  402ca4:	75 ea                	jne    402c90 <__libc_csu_init+0x40>
  402ca6:	48 83 c4 08          	add    $0x8,%rsp
  402caa:	5b                   	pop    %rbx
  402cab:	5d                   	pop    %rbp
  402cac:	41 5c                	pop    %r12
  402cae:	41 5d                	pop    %r13
  402cb0:	41 5e                	pop    %r14
  402cb2:	41 5f                	pop    %r15
  402cb4:	c3                   	retq   
  402cb5:	90                   	nop
  402cb6:	66 2e 0f 1f 84 00 00 	nopw   %cs:0x0(%rax,%rax,1)
  402cbd:	00 00 00 

0000000000402cc0 <__libc_csu_fini>:
  402cc0:	f3 c3                	repz retq 

Disassembly of section .fini:

0000000000402cc4 <_fini>:
  402cc4:	48 83 ec 08          	sub    $0x8,%rsp
  402cc8:	48 83 c4 08          	add    $0x8,%rsp
  402ccc:	c3                   	retq   
